A51 MACRO ASSEMBLER  08AOYUNDAOJISHI                                                      06/22/2007 17:32:50 PAGE     1


MACRO ASSEMBLER A51 V8.00
OBJECT MODULE PLACED IN 08aoyundaojishi.OBJ
ASSEMBLER INVOKED BY: C:\Keil\C51\BIN\A51.EXE 08aoyundaojishi.asm SET(SMALL) DEBUG EP

LOC  OBJ            LINE     SOURCE

                       1      
                       2     ;标号==============指令================================地址===机器码=======
                       3     ;==========================================================================
0000 0205A8            4     Q0000:             LJMP  Q05A7                        ;0000   02 05 A7
                       5     ;==========================================================================
0003 00000000          6     Q0003:           DB  00H, 00H, 00H, 00H, 00H, 00H, 00H, 00H     ;........
0007 00000000                
000B 020A52            7     Q000B:           DB  02H, 0AH, 52H      ;..R
                       8     ;==========================================================================
000E E53D              9     Q000E:             MOV   A,3DH                        ;000E   E5 3D
0010 640A             10                        XRL   A,#0AH                       ;0010   64 0A
0012 6003             11                        JZ    Q0017                        ;0012   60 03
0014 0201C7           12                        LJMP  Q01C7                        ;0014   02 01 C7
                      13     ;==========================================================================
0017 F53D             14     Q0017:             MOV   3DH,A                        ;0017   F5 3D
0019 053A             15                        INC   3AH                          ;0019   05 3A
001B E53A             16                        MOV   A,3AH                        ;001B   E5 3A
001D 6406             17                        XRL   A,#06H                       ;001D   64 06
001F 6003             18                        JZ    Q0024                        ;001F   60 03
0021 0201C7           19                        LJMP  Q01C7                        ;0021   02 01 C7
                      20     ;==========================================================================
0024 F53A             21     Q0024:             MOV   3AH,A                        ;0024   F5 3A
0026 0549             22                        INC   49H                          ;0026   05 49
0028 E549             23                        MOV   A,49H                        ;0028   E5 49
002A 640A             24                        XRL   A,#0AH                       ;002A   64 0A
002C 6003             25                        JZ    Q0031                        ;002C   60 03
002E 0201C7           26                        LJMP  Q01C7                        ;002E   02 01 C7
                      27     ;==========================================================================
0031 F549             28     Q0031:             MOV   49H,A                        ;0031   F5 49
0033 0544             29                        INC   44H                          ;0033   05 44
0035 E544             30                        MOV   A,44H                        ;0035   E5 44
0037 6406             31                        XRL   A,#06H                       ;0037   64 06
0039 6003             32                        JZ    Q003E                        ;0039   60 03
003B 0201C7           33                        LJMP  Q01C7                        ;003B   02 01 C7
                      34     ;==========================================================================
003E F544             35     Q003E:             MOV   44H,A                        ;003E   F5 44
0040 1552             36                        DEC   52H                          ;0040   15 52
0042 E552             37                        MOV   A,52H                        ;0042   E5 52
0044 6010             38                        JZ    Q0056                        ;0044   60 10
0046 0550             39                        INC   50H                          ;0046   05 50
0048 E550             40                        MOV   A,50H                        ;0048   E5 50
004A 640A             41                        XRL   A,#0AH                       ;004A   64 0A
004C 6003             42                        JZ    Q0051                        ;004C   60 03
004E 0201C7           43                        LJMP  Q01C7                        ;004E   02 01 C7
                      44     ;==========================================================================
0051 F550             45     Q0051:             MOV   50H,A                        ;0051   F5 50
0053 054A             46                        INC   4AH                          ;0053   05 4A
0055 22               47                        RET                                ;0055   22
                      48     ;==========================================================================
0056 E552             49     Q0056:             MOV   A,52H                        ;0056   E5 52
0058 6003             50                        JZ    Q005D                        ;0058   60 03
005A 0201C7           51                        LJMP  Q01C7                        ;005A   02 01 C7
                      52     ;==========================================================================
005D 755218           53     Q005D:             MOV   52H,#18H                     ;005D   75 52 18
0060 F550             54                        MOV   50H,A                        ;0060   F5 50
0062 F54A             55                        MOV   4AH,A                        ;0062   F5 4A
0064 E537             56                        MOV   A,37H                        ;0064   E5 37
0066 7004             57                        JNZ   Q006C                        ;0066   70 04
A51 MACRO ASSEMBLER  08AOYUNDAOJISHI                                                      06/22/2007 17:32:50 PAGE     2

0068 7F01             58                        MOV   R7,#01H                      ;0068   7F 01
006A 8002             59                        SJMP  Q006E                        ;006A   80 02
006C 7F00             60     Q006C:             MOV   R7,#00H                      ;006C   7F 00
006E E532             61     Q006E:             MOV   A,32H                        ;006E   E5 32
0070 7004             62                        JNZ   Q0076                        ;0070   70 04
0072 7E01             63                        MOV   R6,#01H                      ;0072   7E 01
0074 8002             64                        SJMP  Q0078                        ;0074   80 02
0076 7E00             65     Q0076:             MOV   R6,#00H                      ;0076   7E 00
0078 EE               66     Q0078:             MOV   A,R6                         ;0078   EE
0079 5F               67                        ANL   A,R7                         ;0079   5F
007A FF               68                        MOV   R7,A                         ;007A   FF
007B E540             69                        MOV   A,40H                        ;007B   E5 40
007D 7004             70                        JNZ   Q0083                        ;007D   70 04
007F 7E01             71                        MOV   R6,#01H                      ;007F   7E 01
0081 8002             72                        SJMP  Q0085                        ;0081   80 02
0083 7E00             73     Q0083:             MOV   R6,#00H                      ;0083   7E 00
0085 EE               74     Q0085:             MOV   A,R6                         ;0085   EE
0086 5F               75                        ANL   A,R7                         ;0086   5F
0087 FF               76                        MOV   R7,A                         ;0087   FF
0088 E53E             77                        MOV   A,3EH                        ;0088   E5 3E
008A 7004             78                        JNZ   Q0090                        ;008A   70 04
008C 7E01             79                        MOV   R6,#01H                      ;008C   7E 01
008E 8002             80                        SJMP  Q0092                        ;008E   80 02
0090 7E00             81     Q0090:             MOV   R6,#00H                      ;0090   7E 00
0092 EE               82     Q0092:             MOV   A,R6                         ;0092   EE
0093 5F               83                        ANL   A,R7                         ;0093   5F
0094 7028             84                        JNZ   Q00BE                        ;0094   70 28
0096 1532             85                        DEC   32H                          ;0096   15 32
0098 E532             86                        MOV   A,32H                        ;0098   E5 32
009A B40A21           87                        CJNE  A,#0AH,Q00BE                 ;009A   B4 0A 21
009D E4               88                        CLR   A                            ;009D   E4
009E F532             89                        MOV   32H,A                        ;009E   F5 32
00A0 1537             90                        DEC   37H                          ;00A0   15 37
00A2 E537             91                        MOV   A,37H                        ;00A2   E5 37
00A4 B40A17           92                        CJNE  A,#0AH,Q00BE                 ;00A4   B4 0A 17
00A7 E4               93                        CLR   A                            ;00A7   E4
00A8 F537             94                        MOV   37H,A                        ;00A8   F5 37
00AA 1540             95                        DEC   40H                          ;00AA   15 40
00AC E540             96                        MOV   A,40H                        ;00AC   E5 40
00AE B40A0D           97                        CJNE  A,#0AH,Q00BE                 ;00AE   B4 0A 0D
00B1 E4               98                        CLR   A                            ;00B1   E4
00B2 F540             99                        MOV   40H,A                        ;00B2   F5 40
00B4 153E            100                        DEC   3EH                          ;00B4   15 3E
00B6 E53E            101                        MOV   A,3EH                        ;00B6   E5 3E
00B8 B40A03          102                        CJNE  A,#0AH,Q00BE                 ;00B8   B4 0A 03
00BB E4              103                        CLR   A                            ;00BB   E4
00BC F53E            104                        MOV   3EH,A                        ;00BC   F5 3E
00BE E539            105     Q00BE:             MOV   A,39H                        ;00BE   E5 39
00C0 44FE            106                        ORL   A,#0FEH                      ;00C0   44 FE
00C2 FF              107                        MOV   R7,A                         ;00C2   FF
00C3 F4              108                        CPL   A                            ;00C3   F4
00C4 707A            109                        JNZ   Q0140                        ;00C4   70 7A
00C6 1542            110                        DEC   42H                          ;00C6   15 42
00C8 E542            111                        MOV   A,42H                        ;00C8   E5 42
00CA 600D            112                        JZ    Q00D9                        ;00CA   60 0D
00CC 0546            113                        INC   46H                          ;00CC   05 46
00CE E546            114                        MOV   A,46H                        ;00CE   E5 46
00D0 640A            115                        XRL   A,#0AH                       ;00D0   64 0A
00D2 6003            116                        JZ    Q00D7                        ;00D2   60 03
00D4 0201C7          117                        LJMP  Q01C7                        ;00D4   02 01 C7
                     118     ;==========================================================================
00D7 807C            119     Q00D7:             SJMP  Q0155                        ;00D7   80 7C
00D9 E542            120     Q00D9:             MOV   A,42H                        ;00D9   E5 42
00DB 6003            121                        JZ    Q00E0                        ;00DB   60 03
00DD 0201C7          122                        LJMP  Q01C7                        ;00DD   02 01 C7
                     123     ;==========================================================================
A51 MACRO ASSEMBLER  08AOYUNDAOJISHI                                                      06/22/2007 17:32:50 PAGE     3

00E0 75421F          124     Q00E0:             MOV   42H,#1FH                     ;00E0   75 42 1F
00E3 754601          125                        MOV   46H,#01H                     ;00E3   75 46 01
00E6 F553            126                        MOV   53H,A                        ;00E6   F5 53
00E8 1541            127                        DEC   41H                          ;00E8   15 41
00EA E541            128                        MOV   A,41H                        ;00EA   E5 41
00EC 600E            129                        JZ    Q00FC                        ;00EC   60 0E
00EE 0539            130                        INC   39H                          ;00EE   05 39
00F0 E539            131                        MOV   A,39H                        ;00F0   E5 39
00F2 640A            132                        XRL   A,#0AH                       ;00F2   64 0A
00F4 6003            133                        JZ    Q00F9                        ;00F4   60 03
00F6 0201C7          134                        LJMP  Q01C7                        ;00F6   02 01 C7
                     135     ;==========================================================================
00F9 02018E          136     Q00F9:             LJMP  Q018E                        ;00F9   02 01 8E
                     137     ;==========================================================================
00FC E541            138     Q00FC:             MOV   A,41H                        ;00FC   E5 41
00FE 6003            139                        JZ    Q0103                        ;00FE   60 03
0100 0201C7          140                        LJMP  Q01C7                        ;0100   02 01 C7
                     141     ;==========================================================================
0103 75410C          142     Q0103:             MOV   41H,#0CH                     ;0103   75 41 0C
0106 753901          143                        MOV   39H,#01H                     ;0106   75 39 01
0109 F547            144                        MOV   47H,A                        ;0109   F5 47
010B 053F            145                        INC   3FH                          ;010B   05 3F
010D E53F            146                        MOV   A,3FH                        ;010D   E5 3F
010F 640A            147                        XRL   A,#0AH                       ;010F   64 0A
0111 6003            148                        JZ    Q0116                        ;0111   60 03
0113 0201C7          149                        LJMP  Q01C7                        ;0113   02 01 C7
                     150     ;==========================================================================
0116 F53F            151     Q0116:             MOV   3FH,A                        ;0116   F5 3F
0118 054B            152                        INC   4BH                          ;0118   05 4B
011A E54B            153                        MOV   A,4BH                        ;011A   E5 4B
011C 640A            154                        XRL   A,#0AH                       ;011C   64 0A
011E 6003            155                        JZ    Q0123                        ;011E   60 03
0120 0201C7          156                        LJMP  Q01C7                        ;0120   02 01 C7
                     157     ;==========================================================================
0123 F54B            158     Q0123:             MOV   4BH,A                        ;0123   F5 4B
0125 0523            159                        INC   23H                          ;0125   05 23
0127 E523            160                        MOV   A,23H                        ;0127   E5 23
0129 640A            161                        XRL   A,#0AH                       ;0129   64 0A
012B 6003            162                        JZ    Q0130                        ;012B   60 03
012D 0201C7          163                        LJMP  Q01C7                        ;012D   02 01 C7
                     164     ;==========================================================================
0130 F523            165     Q0130:             MOV   23H,A                        ;0130   F5 23
0132 0522            166                        INC   22H                          ;0132   05 22
0134 E522            167                        MOV   A,22H                        ;0134   E5 22
0136 640A            168                        XRL   A,#0AH                       ;0136   64 0A
0138 6003            169                        JZ    Q013D                        ;0138   60 03
013A 0201C7          170                        LJMP  Q01C7                        ;013A   02 01 C7
                     171     ;==========================================================================
013D F522            172     Q013D:             MOV   22H,A                        ;013D   F5 22
013F 22              173                        RET                                ;013F   22
                     174     ;==========================================================================
0140 EF              175     Q0140:             MOV   A,R7                         ;0140   EF
0141 F4              176                        CPL   A                            ;0141   F4
0142 7003            177                        JNZ   Q0147                        ;0142   70 03
0144 0201C7          178                        LJMP  Q01C7                        ;0144   02 01 C7
                     179     ;==========================================================================
0147 1545            180     Q0147:             DEC   45H                          ;0147   15 45
0149 E545            181                        MOV   A,45H                        ;0149   E5 45
014B 600D            182                        JZ    Q015A                        ;014B   60 0D
014D 0546            183                        INC   46H                          ;014D   05 46
014F E546            184                        MOV   A,46H                        ;014F   E5 46
0151 640A            185                        XRL   A,#0AH                       ;0151   64 0A
0153 7072            186                        JNZ   Q01C7                        ;0153   70 72
0155 F546            187     Q0155:             MOV   46H,A                        ;0155   F5 46
0157 0553            188                        INC   53H                          ;0157   05 53
0159 22              189                        RET                                ;0159   22
A51 MACRO ASSEMBLER  08AOYUNDAOJISHI                                                      06/22/2007 17:32:50 PAGE     4

                     190     ;==========================================================================
015A E545            191     Q015A:             MOV   A,45H                        ;015A   E5 45
015C 7069            192                        JNZ   Q01C7                        ;015C   70 69
015E E539            193                        MOV   A,39H                        ;015E   E5 39
0160 B40214          194                        CJNE  A,#02H,Q0177                 ;0160   B4 02 14
0163 E53B            195                        MOV   A,3BH                        ;0163   E5 3B
0165 B41C05          196                        CJNE  A,#1CH,Q016D                 ;0165   B4 1C 05
0168 75451C          197                        MOV   45H,#1CH                     ;0168   75 45 1C
016B 800D            198                        SJMP  Q017A                        ;016B   80 0D
016D E53B            199     Q016D:             MOV   A,3BH                        ;016D   E5 3B
016F B41D0E          200                        CJNE  A,#1DH,Q0180                 ;016F   B4 1D 0E
0172 75451D          201                        MOV   45H,#1DH                     ;0172   75 45 1D
0175 8003            202                        SJMP  Q017A                        ;0175   80 03
0177 75421E          203     Q0177:             MOV   42H,#1EH                     ;0177   75 42 1E
017A 754601          204     Q017A:             MOV   46H,#01H                     ;017A   75 46 01
017D E4              205                        CLR   A                            ;017D   E4
017E F553            206                        MOV   53H,A                        ;017E   F5 53
0180 1541            207     Q0180:             DEC   41H                          ;0180   15 41
0182 E541            208                        MOV   A,41H                        ;0182   E5 41
0184 600D            209                        JZ    Q0193                        ;0184   60 0D
0186 0539            210                        INC   39H                          ;0186   05 39
0188 E539            211                        MOV   A,39H                        ;0188   E5 39
018A 640A            212                        XRL   A,#0AH                       ;018A   64 0A
018C 7039            213                        JNZ   Q01C7                        ;018C   70 39
018E F539            214     Q018E:             MOV   39H,A                        ;018E   F5 39
0190 0547            215                        INC   47H                          ;0190   05 47
0192 22              216                        RET                                ;0192   22
                     217     ;==========================================================================
0193 E541            218     Q0193:             MOV   A,41H                        ;0193   E5 41
0195 7030            219                        JNZ   Q01C7                        ;0195   70 30
0197 75410C          220                        MOV   41H,#0CH                     ;0197   75 41 0C
019A 753901          221                        MOV   39H,#01H                     ;019A   75 39 01
019D F547            222                        MOV   47H,A                        ;019D   F5 47
019F 053F            223                        INC   3FH                          ;019F   05 3F
01A1 E53F            224                        MOV   A,3FH                        ;01A1   E5 3F
01A3 B40A21          225                        CJNE  A,#0AH,Q01C7                 ;01A3   B4 0A 21
01A6 E4              226                        CLR   A                            ;01A6   E4
01A7 F53F            227                        MOV   3FH,A                        ;01A7   F5 3F
01A9 054B            228                        INC   4BH                          ;01A9   05 4B
01AB E54B            229                        MOV   A,4BH                        ;01AB   E5 4B
01AD B40A17          230                        CJNE  A,#0AH,Q01C7                 ;01AD   B4 0A 17
01B0 E4              231                        CLR   A                            ;01B0   E4
01B1 F54B            232                        MOV   4BH,A                        ;01B1   F5 4B
01B3 0523            233                        INC   23H                          ;01B3   05 23
01B5 E523            234                        MOV   A,23H                        ;01B5   E5 23
01B7 B40A0D          235                        CJNE  A,#0AH,Q01C7                 ;01B7   B4 0A 0D
01BA E4              236                        CLR   A                            ;01BA   E4
01BB F523            237                        MOV   23H,A                        ;01BB   F5 23
01BD 0522            238                        INC   22H                          ;01BD   05 22
01BF E522            239                        MOV   A,22H                        ;01BF   E5 22
01C1 B40A03          240                        CJNE  A,#0AH,Q01C7                 ;01C1   B4 0A 03
01C4 E4              241                        CLR   A                            ;01C4   E4
01C5 F522            242                        MOV   22H,A                        ;01C5   F5 22
01C7 22              243     Q01C7:             RET                                ;01C7   22
                     244     ;==========================================================================
01C8 853050          245     Q01C8:             MOV   50H,30H                      ;01C8   85 30 50
01CB 852F4A          246                        MOV   4AH,2FH                      ;01CB   85 2F 4A
01CE 907FFF          247     Q01CE:             MOV   DPTR,#7FFFH                  ;01CE   90 7F FF
01D1 74DF            248                        MOV   A,#0DFH                      ;01D1   74 DF
01D3 F0              249                        MOVX  @DPTR,A                      ;01D3   F0
01D4 E53D            250                        MOV   A,3DH                        ;01D4   E5 3D
01D6 25E0            251                        ADD   A,ACC                        ;01D6   25 E0
01D8 246D            252                        ADD   A,#6DH                       ;01D8   24 6D
01DA F582            253                        MOV   DPL,A                        ;01DA   F5 82
01DC E4              254                        CLR   A                            ;01DC   E4
01DD 340A            255                        ADDC  A,#0AH                       ;01DD   34 0A
A51 MACRO ASSEMBLER  08AOYUNDAOJISHI                                                      06/22/2007 17:32:50 PAGE     5

01DF F583            256                        MOV   DPH,A                        ;01DF   F5 83
01E1 7401            257                        MOV   A,#01H                       ;01E1   74 01
01E3 93              258                        MOVC  A,@A+DPTR                    ;01E3   93
01E4 90BFFF          259                        MOV   DPTR,#0BFFFH                 ;01E4   90 BF FF
01E7 120A03          260                        LCALL Q0A03                        ;01E7   12 0A 03
01EA 907FFF          261                        MOV   DPTR,#7FFFH                  ;01EA   90 7F FF
01ED 74EF            262                        MOV   A,#0EFH                      ;01ED   74 EF
01EF F0              263                        MOVX  @DPTR,A                      ;01EF   F0
01F0 E53A            264                        MOV   A,3AH                        ;01F0   E5 3A
01F2 25E0            265                        ADD   A,ACC                        ;01F2   25 E0
01F4 246D            266                        ADD   A,#6DH                       ;01F4   24 6D
01F6 F582            267                        MOV   DPL,A                        ;01F6   F5 82
01F8 E4              268                        CLR   A                            ;01F8   E4
01F9 340A            269                        ADDC  A,#0AH                       ;01F9   34 0A
01FB F583            270                        MOV   DPH,A                        ;01FB   F5 83
01FD 7401            271                        MOV   A,#01H                       ;01FD   74 01
01FF 93              272                        MOVC  A,@A+DPTR                    ;01FF   93
0200 90BFFF          273                        MOV   DPTR,#0BFFFH                 ;0200   90 BF FF
0203 120A03          274                        LCALL Q0A03                        ;0203   12 0A 03
0206 907FFF          275                        MOV   DPTR,#7FFFH                  ;0206   90 7F FF
0209 74F7            276                        MOV   A,#0F7H                      ;0209   74 F7
020B F0              277                        MOVX  @DPTR,A                      ;020B   F0
020C E549            278                        MOV   A,49H                        ;020C   E5 49
020E 25E0            279                        ADD   A,ACC                        ;020E   25 E0
0210 246D            280                        ADD   A,#6DH                       ;0210   24 6D
0212 F582            281                        MOV   DPL,A                        ;0212   F5 82
0214 E4              282                        CLR   A                            ;0214   E4
0215 340A            283                        ADDC  A,#0AH                       ;0215   34 0A
0217 F583            284                        MOV   DPH,A                        ;0217   F5 83
0219 7401            285                        MOV   A,#01H                       ;0219   74 01
021B 93              286                        MOVC  A,@A+DPTR                    ;021B   93
021C 4480            287                        ORL   A,#80H                       ;021C   44 80
021E 90BFFF          288                        MOV   DPTR,#0BFFFH                 ;021E   90 BF FF
0221 120A03          289                        LCALL Q0A03                        ;0221   12 0A 03
0224 907FFF          290                        MOV   DPTR,#7FFFH                  ;0224   90 7F FF
0227 74FB            291                        MOV   A,#0FBH                      ;0227   74 FB
0229 F0              292                        MOVX  @DPTR,A                      ;0229   F0
022A E544            293                        MOV   A,44H                        ;022A   E5 44
022C 25E0            294                        ADD   A,ACC                        ;022C   25 E0
022E 246D            295                        ADD   A,#6DH                       ;022E   24 6D
0230 F582            296                        MOV   DPL,A                        ;0230   F5 82
0232 E4              297                        CLR   A                            ;0232   E4
0233 340A            298                        ADDC  A,#0AH                       ;0233   34 0A
0235 F583            299                        MOV   DPH,A                        ;0235   F5 83
0237 7401            300                        MOV   A,#01H                       ;0237   74 01
0239 93              301                        MOVC  A,@A+DPTR                    ;0239   93
023A 90BFFF          302                        MOV   DPTR,#0BFFFH                 ;023A   90 BF FF
023D 120A03          303                        LCALL Q0A03                        ;023D   12 0A 03
0240 907FFF          304                        MOV   DPTR,#7FFFH                  ;0240   90 7F FF
0243 74FD            305                        MOV   A,#0FDH                      ;0243   74 FD
0245 F0              306                        MOVX  @DPTR,A                      ;0245   F0
0246 E550            307                        MOV   A,50H                        ;0246   E5 50
0248 25E0            308                        ADD   A,ACC                        ;0248   25 E0
024A 246D            309                        ADD   A,#6DH                       ;024A   24 6D
024C F582            310                        MOV   DPL,A                        ;024C   F5 82
024E E4              311                        CLR   A                            ;024E   E4
024F 340A            312                        ADDC  A,#0AH                       ;024F   34 0A
0251 F583            313                        MOV   DPH,A                        ;0251   F5 83
0253 7401            314                        MOV   A,#01H                       ;0253   74 01
0255 93              315                        MOVC  A,@A+DPTR                    ;0255   93
0256 4480            316                        ORL   A,#80H                       ;0256   44 80
0258 90BFFF          317                        MOV   DPTR,#0BFFFH                 ;0258   90 BF FF
025B 120A03          318                        LCALL Q0A03                        ;025B   12 0A 03
025E 907FFF          319                        MOV   DPTR,#7FFFH                  ;025E   90 7F FF
0261 74FE            320                        MOV   A,#0FEH                      ;0261   74 FE
0263 F0              321                        MOVX  @DPTR,A                      ;0263   F0
A51 MACRO ASSEMBLER  08AOYUNDAOJISHI                                                      06/22/2007 17:32:50 PAGE     6

0264 E54A            322                        MOV   A,4AH                        ;0264   E5 4A
0266 25E0            323                        ADD   A,ACC                        ;0266   25 E0
0268 246D            324                        ADD   A,#6DH                       ;0268   24 6D
026A F582            325                        MOV   DPL,A                        ;026A   F5 82
026C E4              326                        CLR   A                            ;026C   E4
026D 340A            327                        ADDC  A,#0AH                       ;026D   34 0A
026F F583            328                        MOV   DPH,A                        ;026F   F5 83
0271 7401            329                        MOV   A,#01H                       ;0271   74 01
0273 93              330                        MOVC  A,@A+DPTR                    ;0273   93
0274 90BFFF          331                        MOV   DPTR,#0BFFFH                 ;0274   90 BF FF
0277 120A03          332                        LCALL Q0A03                        ;0277   12 0A 03
027A 90DFFF          333                        MOV   DPTR,#0DFFFH                 ;027A   90 DF FF
027D 747F            334                        MOV   A,#7FH                       ;027D   74 7F
027F F0              335                        MOVX  @DPTR,A                      ;027F   F0
0280 E546            336                        MOV   A,46H                        ;0280   E5 46
0282 1209F2          337                        LCALL Q09F2                        ;0282   12 09 F2
0285 90DFFF          338                        MOV   DPTR,#0DFFFH                 ;0285   90 DF FF
0288 74BF            339                        MOV   A,#0BFH                      ;0288   74 BF
028A F0              340                        MOVX  @DPTR,A                      ;028A   F0
028B E553            341                        MOV   A,53H                        ;028B   E5 53
028D 1209F2          342                        LCALL Q09F2                        ;028D   12 09 F2
0290 90DFFF          343                        MOV   DPTR,#0DFFFH                 ;0290   90 DF FF
0293 74DF            344                        MOV   A,#0DFH                      ;0293   74 DF
0295 F0              345                        MOVX  @DPTR,A                      ;0295   F0
0296 E539            346                        MOV   A,39H                        ;0296   E5 39
0298 25E0            347                        ADD   A,ACC                        ;0298   25 E0
029A 246D            348                        ADD   A,#6DH                       ;029A   24 6D
029C F582            349                        MOV   DPL,A                        ;029C   F5 82
029E E4              350                        CLR   A                            ;029E   E4
029F 340A            351                        ADDC  A,#0AH                       ;029F   34 0A
02A1 F583            352                        MOV   DPH,A                        ;02A1   F5 83
02A3 7401            353                        MOV   A,#01H                       ;02A3   74 01
02A5 93              354                        MOVC  A,@A+DPTR                    ;02A5   93
02A6 4480            355                        ORL   A,#80H                       ;02A6   44 80
02A8 120A00          356                        LCALL Q0A00                        ;02A8   12 0A 00
02AB 90DFFF          357                        MOV   DPTR,#0DFFFH                 ;02AB   90 DF FF
02AE 74EF            358                        MOV   A,#0EFH                      ;02AE   74 EF
02B0 F0              359                        MOVX  @DPTR,A                      ;02B0   F0
02B1 E547            360                        MOV   A,47H                        ;02B1   E5 47
02B3 1209F2          361                        LCALL Q09F2                        ;02B3   12 09 F2
02B6 90DFFF          362                        MOV   DPTR,#0DFFFH                 ;02B6   90 DF FF
02B9 74F7            363                        MOV   A,#0F7H                      ;02B9   74 F7
02BB F0              364                        MOVX  @DPTR,A                      ;02BB   F0
02BC E53F            365                        MOV   A,3FH                        ;02BC   E5 3F
02BE 25E0            366                        ADD   A,ACC                        ;02BE   25 E0
02C0 246D            367                        ADD   A,#6DH                       ;02C0   24 6D
02C2 F582            368                        MOV   DPL,A                        ;02C2   F5 82
02C4 E4              369                        CLR   A                            ;02C4   E4
02C5 340A            370                        ADDC  A,#0AH                       ;02C5   34 0A
02C7 F583            371                        MOV   DPH,A                        ;02C7   F5 83
02C9 7401            372                        MOV   A,#01H                       ;02C9   74 01
02CB 93              373                        MOVC  A,@A+DPTR                    ;02CB   93
02CC 4480            374                        ORL   A,#80H                       ;02CC   44 80
02CE 120A00          375                        LCALL Q0A00                        ;02CE   12 0A 00
02D1 90DFFF          376                        MOV   DPTR,#0DFFFH                 ;02D1   90 DF FF
02D4 74FB            377                        MOV   A,#0FBH                      ;02D4   74 FB
02D6 F0              378                        MOVX  @DPTR,A                      ;02D6   F0
02D7 E54B            379                        MOV   A,4BH                        ;02D7   E5 4B
02D9 1209F2          380                        LCALL Q09F2                        ;02D9   12 09 F2
02DC 90DFFF          381                        MOV   DPTR,#0DFFFH                 ;02DC   90 DF FF
02DF 74FD            382                        MOV   A,#0FDH                      ;02DF   74 FD
02E1 F0              383                        MOVX  @DPTR,A                      ;02E1   F0
02E2 E523            384                        MOV   A,23H                        ;02E2   E5 23
02E4 1209F2          385                        LCALL Q09F2                        ;02E4   12 09 F2
02E7 90DFFF          386                        MOV   DPTR,#0DFFFH                 ;02E7   90 DF FF
02EA 74FE            387                        MOV   A,#0FEH                      ;02EA   74 FE
A51 MACRO ASSEMBLER  08AOYUNDAOJISHI                                                      06/22/2007 17:32:50 PAGE     7

02EC F0              388                        MOVX  @DPTR,A                      ;02EC   F0
02ED E522            389                        MOV   A,22H                        ;02ED   E5 22
02EF 1209F2          390                        LCALL Q09F2                        ;02EF   12 09 F2
02F2 90F7FF          391                        MOV   DPTR,#0F7FFH                 ;02F2   90 F7 FF
02F5 74F7            392                        MOV   A,#0F7H                      ;02F5   74 F7
02F7 F0              393                        MOVX  @DPTR,A                      ;02F7   F0
02F8 E532            394                        MOV   A,32H                        ;02F8   E5 32
02FA 25E0            395                        ADD   A,ACC                        ;02FA   25 E0
02FC 246D            396                        ADD   A,#6DH                       ;02FC   24 6D
02FE F582            397                        MOV   DPL,A                        ;02FE   F5 82
0300 E4              398                        CLR   A                            ;0300   E4
0301 340A            399                        ADDC  A,#0AH                       ;0301   34 0A
0303 F583            400                        MOV   DPH,A                        ;0303   F5 83
0305 7401            401                        MOV   A,#01H                       ;0305   74 01
0307 93              402                        MOVC  A,@A+DPTR                    ;0307   93
0308 90FBFF          403                        MOV   DPTR,#0FBFFH                 ;0308   90 FB FF
030B 120A03          404                        LCALL Q0A03                        ;030B   12 0A 03
030E 90F7FF          405                        MOV   DPTR,#0F7FFH                 ;030E   90 F7 FF
0311 74FB            406                        MOV   A,#0FBH                      ;0311   74 FB
0313 F0              407                        MOVX  @DPTR,A                      ;0313   F0
0314 E537            408                        MOV   A,37H                        ;0314   E5 37
0316 25E0            409                        ADD   A,ACC                        ;0316   25 E0
0318 246D            410                        ADD   A,#6DH                       ;0318   24 6D
031A F582            411                        MOV   DPL,A                        ;031A   F5 82
031C E4              412                        CLR   A                            ;031C   E4
031D 340A            413                        ADDC  A,#0AH                       ;031D   34 0A
031F F583            414                        MOV   DPH,A                        ;031F   F5 83
0321 7401            415                        MOV   A,#01H                       ;0321   74 01
0323 93              416                        MOVC  A,@A+DPTR                    ;0323   93
0324 90FBFF          417                        MOV   DPTR,#0FBFFH                 ;0324   90 FB FF
0327 120A03          418                        LCALL Q0A03                        ;0327   12 0A 03
032A 90F7FF          419                        MOV   DPTR,#0F7FFH                 ;032A   90 F7 FF
032D 74FD            420                        MOV   A,#0FDH                      ;032D   74 FD
032F F0              421                        MOVX  @DPTR,A                      ;032F   F0
0330 E540            422                        MOV   A,40H                        ;0330   E5 40
0332 25E0            423                        ADD   A,ACC                        ;0332   25 E0
0334 246D            424                        ADD   A,#6DH                       ;0334   24 6D
0336 F582            425                        MOV   DPL,A                        ;0336   F5 82
0338 E4              426                        CLR   A                            ;0338   E4
0339 340A            427                        ADDC  A,#0AH                       ;0339   34 0A
033B F583            428                        MOV   DPH,A                        ;033B   F5 83
033D 7401            429                        MOV   A,#01H                       ;033D   74 01
033F 93              430                        MOVC  A,@A+DPTR                    ;033F   93
0340 90FBFF          431                        MOV   DPTR,#0FBFFH                 ;0340   90 FB FF
0343 120A03          432                        LCALL Q0A03                        ;0343   12 0A 03
0346 90F7FF          433                        MOV   DPTR,#0F7FFH                 ;0346   90 F7 FF
0349 74FE            434                        MOV   A,#0FEH                      ;0349   74 FE
034B F0              435                        MOVX  @DPTR,A                      ;034B   F0
034C E53E            436                        MOV   A,3EH                        ;034C   E5 3E
034E 25E0            437                        ADD   A,ACC                        ;034E   25 E0
0350 246D            438                        ADD   A,#6DH                       ;0350   24 6D
0352 F582            439                        MOV   DPL,A                        ;0352   F5 82
0354 E4              440                        CLR   A                            ;0354   E4
0355 340A            441                        ADDC  A,#0AH                       ;0355   34 0A
0357 F583            442                        MOV   DPH,A                        ;0357   F5 83
0359 7401            443                        MOV   A,#01H                       ;0359   74 01
035B 93              444                        MOVC  A,@A+DPTR                    ;035B   93
035C 90FBFF          445                        MOV   DPTR,#0FBFFH                 ;035C   90 FB FF
035F F0              446                        MOVX  @DPTR,A                      ;035F   F0
0360 7F03            447                        MOV   R7,#03H                      ;0360   7F 03
0362 7E00            448                        MOV   R6,#00H                      ;0362   7E 00
0364 020A08          449                        LJMP  Q0A08                        ;0364   02 0A 08
                     450     ;==========================================================================
0367 300539          451     Q0367:             JNB   20H.5,Q03A3                  ;0367   30 05 39
036A E552            452                        MOV   A,52H                        ;036A   E5 52
036C 6418            453                        XRL   A,#18H                       ;036C   64 18
A51 MACRO ASSEMBLER  08AOYUNDAOJISHI                                                      06/22/2007 17:32:50 PAGE     8

036E 6020            454                        JZ    Q0390                        ;036E   60 20
0370 0552            455                        INC   52H                          ;0370   05 52
0372 1530            456                        DEC   30H                          ;0372   15 30
0374 E530            457                        MOV   A,30H                        ;0374   E5 30
0376 F4              458                        CPL   A                            ;0376   F4
0377 6003            459                        JZ    Q037C                        ;0377   60 03
0379 020500          460                        LJMP  Q0500                        ;0379   02 05 00
                     461     ;==========================================================================
037C 753009          462     Q037C:             MOV   30H,#09H                     ;037C   75 30 09
037F 152F            463                        DEC   2FH                          ;037F   15 2F
0381 E52F            464                        MOV   A,2FH                        ;0381   E5 2F
0383 F4              465                        CPL   A                            ;0383   F4
0384 6003            466                        JZ    Q0389                        ;0384   60 03
0386 020500          467                        LJMP  Q0500                        ;0386   02 05 00
                     468     ;==========================================================================
0389 752F02          469     Q0389:             MOV   2FH,#02H                     ;0389   75 2F 02
038C 753003          470                        MOV   30H,#03H                     ;038C   75 30 03
038F 22              471                        RET                                ;038F   22
                     472     ;==========================================================================
0390 E552            473     Q0390:             MOV   A,52H                        ;0390   E5 52
0392 6418            474                        XRL   A,#18H                       ;0392   64 18
0394 6003            475                        JZ    Q0399                        ;0394   60 03
0396 020500          476                        LJMP  Q0500                        ;0396   02 05 00
                     477     ;==========================================================================
0399 755201          478     Q0399:             MOV   52H,#01H                     ;0399   75 52 01
039C 753003          479                        MOV   30H,#03H                     ;039C   75 30 03
039F 752F02          480                        MOV   2FH,#02H                     ;039F   75 2F 02
03A2 22              481                        RET                                ;03A2   22
                     482     ;==========================================================================
03A3 30001B          483     Q03A3:             JNB   20H.0,Q03C1                  ;03A3   30 00 1B
03A6 152D            484                        DEC   2DH                          ;03A6   15 2D
03A8 E52D            485                        MOV   A,2DH                        ;03A8   E5 2D
03AA F4              486                        CPL   A                            ;03AA   F4
03AB 6003            487                        JZ    Q03B0                        ;03AB   60 03
03AD 020500          488                        LJMP  Q0500                        ;03AD   02 05 00
                     489     ;==========================================================================
03B0 752D09          490     Q03B0:             MOV   2DH,#09H                     ;03B0   75 2D 09
03B3 152A            491                        DEC   2AH                          ;03B3   15 2A
03B5 E52A            492                        MOV   A,2AH                        ;03B5   E5 2A
03B7 F4              493                        CPL   A                            ;03B7   F4
03B8 6003            494                        JZ    Q03BD                        ;03B8   60 03
03BA 020500          495                        LJMP  Q0500                        ;03BA   02 05 00
                     496     ;==========================================================================
03BD 752A05          497     Q03BD:             MOV   2AH,#05H                     ;03BD   75 2A 05
03C0 22              498                        RET                                ;03C0   22
                     499     ;==========================================================================
03C1 300435          500     Q03C1:             JNB   20H.4,Q03F9                  ;03C1   30 04 35
03C4 1528            501                        DEC   28H                          ;03C4   15 28
03C6 E528            502                        MOV   A,28H                        ;03C6   E5 28
03C8 F4              503                        CPL   A                            ;03C8   F4
03C9 6003            504                        JZ    Q03CE                        ;03C9   60 03
03CB 020500          505                        LJMP  Q0500                        ;03CB   02 05 00
                     506     ;==========================================================================
03CE 752809          507     Q03CE:             MOV   28H,#09H                     ;03CE   75 28 09
03D1 153C            508                        DEC   3CH                          ;03D1   15 3C
03D3 E53C            509                        MOV   A,3CH                        ;03D3   E5 3C
03D5 F4              510                        CPL   A                            ;03D5   F4
03D6 6003            511                        JZ    Q03DB                        ;03D6   60 03
03D8 020500          512                        LJMP  Q0500                        ;03D8   02 05 00
                     513     ;==========================================================================
03DB 753C09          514     Q03DB:             MOV   3CH,#09H                     ;03DB   75 3C 09
03DE 1551            515                        DEC   51H                          ;03DE   15 51
03E0 E551            516                        MOV   A,51H                        ;03E0   E5 51
03E2 F4              517                        CPL   A                            ;03E2   F4
03E3 6003            518                        JZ    Q03E8                        ;03E3   60 03
03E5 020500          519                        LJMP  Q0500                        ;03E5   02 05 00
A51 MACRO ASSEMBLER  08AOYUNDAOJISHI                                                      06/22/2007 17:32:50 PAGE     9

                     520     ;==========================================================================
03E8 755109          521     Q03E8:             MOV   51H,#09H                     ;03E8   75 51 09
03EB 1529            522                        DEC   29H                          ;03EB   15 29
03ED E529            523                        MOV   A,29H                        ;03ED   E5 29
03EF F4              524                        CPL   A                            ;03EF   F4
03F0 6003            525                        JZ    Q03F5                        ;03F0   60 03
03F2 020500          526                        LJMP  Q0500                        ;03F2   02 05 00
                     527     ;==========================================================================
03F5 752909          528     Q03F5:             MOV   29H,#09H                     ;03F5   75 29 09
03F8 22              529                        RET                                ;03F8   22
                     530     ;==========================================================================
03F9 30032B          531     Q03F9:             JNB   20H.3,Q0427                  ;03F9   30 03 2B
03FC E541            532                        MOV   A,41H                        ;03FC   E5 41
03FE 640C            533                        XRL   A,#0CH                       ;03FE   64 0C
0400 6012            534                        JZ    Q0414                        ;0400   60 12
0402 0541            535                        INC   41H                          ;0402   05 41
0404 1554            536                        DEC   54H                          ;0404   15 54
0406 E554            537                        MOV   A,54H                        ;0406   E5 54
0408 F4              538                        CPL   A                            ;0408   F4
0409 6003            539                        JZ    Q040E                        ;0409   60 03
040B 020500          540                        LJMP  Q0500                        ;040B   02 05 00
                     541     ;==========================================================================
040E 755409          542     Q040E:             MOV   54H,#09H                     ;040E   75 54 09
0411 1538            543                        DEC   38H                          ;0411   15 38
0413 22              544                        RET                                ;0413   22
                     545     ;==========================================================================
0414 E541            546     Q0414:             MOV   A,41H                        ;0414   E5 41
0416 640C            547                        XRL   A,#0CH                       ;0416   64 0C
0418 6003            548                        JZ    Q041D                        ;0418   60 03
041A 020500          549                        LJMP  Q0500                        ;041A   02 05 00
                     550     ;==========================================================================
041D 754101          551     Q041D:             MOV   41H,#01H                     ;041D   75 41 01
0420 755402          552                        MOV   54H,#02H                     ;0420   75 54 02
0423 753801          553                        MOV   38H,#01H                     ;0423   75 38 01
0426 22              554                        RET                                ;0426   22
                     555     ;==========================================================================
0427 200203          556     Q0427:             JB    20H.2,Q042D                  ;0427   20 02 03
042A 0204D5          557                        LJMP  Q04D5                        ;042A   02 04 D5
                     558     ;==========================================================================
042D E554            559     Q042D:             MOV   A,54H                        ;042D   E5 54
042F 44FE            560                        ORL   A,#0FEH                      ;042F   44 FE
0431 FF              561                        MOV   R7,A                         ;0431   FF
0432 F4              562                        CPL   A                            ;0432   F4
0433 7027            563                        JNZ   Q045C                        ;0433   70 27
0435 E542            564                        MOV   A,42H                        ;0435   E5 42
0437 641F            565                        XRL   A,#1FH                       ;0437   64 1F
0439 600E            566                        JZ    Q0449                        ;0439   60 0E
043B 0542            567                        INC   42H                          ;043B   05 42
043D 152E            568                        DEC   2EH                          ;043D   15 2E
043F E52E            569                        MOV   A,2EH                        ;043F   E5 2E
0441 F4              570                        CPL   A                            ;0441   F4
0442 6003            571                        JZ    Q0447                        ;0442   60 03
0444 020500          572                        LJMP  Q0500                        ;0444   02 05 00
                     573     ;==========================================================================
0447 8032            574     Q0447:             SJMP  Q047B                        ;0447   80 32
0449 E542            575     Q0449:             MOV   A,42H                        ;0449   E5 42
044B 641F            576                        XRL   A,#1FH                       ;044B   64 1F
044D 6003            577                        JZ    Q0452                        ;044D   60 03
044F 020500          578                        LJMP  Q0500                        ;044F   02 05 00
                     579     ;==========================================================================
0452 754201          580     Q0452:             MOV   42H,#01H                     ;0452   75 42 01
0455 752E01          581                        MOV   2EH,#01H                     ;0455   75 2E 01
0458 754303          582                        MOV   43H,#03H                     ;0458   75 43 03
045B 22              583                        RET                                ;045B   22
                     584     ;==========================================================================
045C EF              585     Q045C:             MOV   A,R7                         ;045C   EF
A51 MACRO ASSEMBLER  08AOYUNDAOJISHI                                                      06/22/2007 17:32:50 PAGE    10

045D F4              586                        CPL   A                            ;045D   F4
045E 7003            587                        JNZ   Q0463                        ;045E   70 03
0460 020500          588                        LJMP  Q0500                        ;0460   02 05 00
                     589     ;==========================================================================
0463 E554            590     Q0463:             MOV   A,54H                        ;0463   E5 54
0465 6402            591                        XRL   A,#02H                       ;0465   64 02
0467 703B            592                        JNZ   Q04A4                        ;0467   70 3B
0469 E545            593                        MOV   A,45H                        ;0469   E5 45
046B 653B            594                        XRL   A,3BH                        ;046B   65 3B
046D 6012            595                        JZ    Q0481                        ;046D   60 12
046F 0545            596                        INC   45H                          ;046F   05 45
0471 152E            597                        DEC   2EH                          ;0471   15 2E
0473 E52E            598                        MOV   A,2EH                        ;0473   E5 2E
0475 F4              599                        CPL   A                            ;0475   F4
0476 6003            600                        JZ    Q047B                        ;0476   60 03
0478 020500          601                        LJMP  Q0500                        ;0478   02 05 00
                     602     ;==========================================================================
047B 752E09          603     Q047B:             MOV   2EH,#09H                     ;047B   75 2E 09
047E 1543            604                        DEC   43H                          ;047E   15 43
0480 22              605                        RET                                ;0480   22
                     606     ;==========================================================================
0481 E545            607     Q0481:             MOV   A,45H                        ;0481   E5 45
0483 653B            608                        XRL   A,3BH                        ;0483   65 3B
0485 7079            609                        JNZ   Q0500                        ;0485   70 79
0487 E53B            610                        MOV   A,3BH                        ;0487   E5 3B
0489 B41C08          611                        CJNE  A,#1CH,Q0494                 ;0489   B4 1C 08
048C 754501          612                        MOV   45H,#01H                     ;048C   75 45 01
048F 752E08          613                        MOV   2EH,#08H                     ;048F   75 2E 08
0492 800C            614                        SJMP  Q04A0                        ;0492   80 0C
0494 E53B            615     Q0494:             MOV   A,3BH                        ;0494   E5 3B
0496 641D            616                        XRL   A,#1DH                       ;0496   64 1D
0498 7066            617                        JNZ   Q0500                        ;0498   70 66
049A 754501          618                        MOV   45H,#01H                     ;049A   75 45 01
049D 752E09          619                        MOV   2EH,#09H                     ;049D   75 2E 09
04A0 754302          620     Q04A0:             MOV   43H,#02H                     ;04A0   75 43 02
04A3 22              621                        RET                                ;04A3   22
                     622     ;==========================================================================
04A4 E554            623     Q04A4:             MOV   A,54H                        ;04A4   E5 54
04A6 6402            624                        XRL   A,#02H                       ;04A6   64 02
04A8 6056            625                        JZ    Q0500                        ;04A8   60 56
04AA E536            626                        MOV   A,36H                        ;04AA   E5 36
04AC 641E            627                        XRL   A,#1EH                       ;04AC   64 1E
04AE 6013            628                        JZ    Q04C3                        ;04AE   60 13
04B0 0536            629                        INC   36H                          ;04B0   05 36
04B2 853645          630                        MOV   45H,36H                      ;04B2   85 36 45
04B5 152E            631                        DEC   2EH                          ;04B5   15 2E
04B7 E52E            632                        MOV   A,2EH                        ;04B7   E5 2E
04B9 F4              633                        CPL   A                            ;04B9   F4
04BA 7044            634                        JNZ   Q0500                        ;04BA   70 44
04BC 752E09          635                        MOV   2EH,#09H                     ;04BC   75 2E 09
04BF 1543            636                        DEC   43H                          ;04BF   15 43
04C1 800E            637                        SJMP  Q04D1                        ;04C1   80 0E
04C3 E536            638     Q04C3:             MOV   A,36H                        ;04C3   E5 36
04C5 641E            639                        XRL   A,#1EH                       ;04C5   64 1E
04C7 7037            640                        JNZ   Q0500                        ;04C7   70 37
04C9 753601          641                        MOV   36H,#01H                     ;04C9   75 36 01
04CC F52E            642                        MOV   2EH,A                        ;04CC   F5 2E
04CE 754303          643                        MOV   43H,#03H                     ;04CE   75 43 03
04D1 853645          644     Q04D1:             MOV   45H,36H                      ;04D1   85 36 45
04D4 22              645                        RET                                ;04D4   22
                     646     ;==========================================================================
04D5 300628          647     Q04D5:             JNB   20H.6,Q0500                  ;04D5   30 06 28
04D8 152C            648                        DEC   2CH                          ;04D8   15 2C
04DA E52C            649                        MOV   A,2CH                        ;04DA   E5 2C
04DC B4FF21          650                        CJNE  A,#0FFH,Q0500                ;04DC   B4 FF 21
04DF 752C09          651                        MOV   2CH,#09H                     ;04DF   75 2C 09
A51 MACRO ASSEMBLER  08AOYUNDAOJISHI                                                      06/22/2007 17:32:50 PAGE    11

04E2 1521            652                        DEC   21H                          ;04E2   15 21
04E4 E521            653                        MOV   A,21H                        ;04E4   E5 21
04E6 B4FF17          654                        CJNE  A,#0FFH,Q0500                ;04E6   B4 FF 17
04E9 752109          655                        MOV   21H,#09H                     ;04E9   75 21 09
04EC 1524            656                        DEC   24H                          ;04EC   15 24
04EE E524            657                        MOV   A,24H                        ;04EE   E5 24
04F0 B4FF0D          658                        CJNE  A,#0FFH,Q0500                ;04F0   B4 FF 0D
04F3 752409          659                        MOV   24H,#09H                     ;04F3   75 24 09
04F6 152B            660                        DEC   2BH                          ;04F6   15 2B
04F8 E52B            661                        MOV   A,2BH                        ;04F8   E5 2B
04FA B4FF03          662                        CJNE  A,#0FFH,Q0500                ;04FA   B4 FF 03
04FD 752B09          663                        MOV   2BH,#09H                     ;04FD   75 2B 09
0500 22              664     Q0500:             RET                                ;0500   22
                     665     ;==========================================================================
0501 200603          666     Q0501:             JB    20H.6,Q0507                  ;0501   20 06 03
0504 0205A7          667                        LJMP  Q05A6                        ;0504   02 05 A6
                     668     ;==========================================================================
0507 85322C          669     Q0507:             MOV   2CH,32H                      ;0507   85 32 2C
050A 853721          670                        MOV   21H,37H                      ;050A   85 37 21
050D 854024          671                        MOV   24H,40H                      ;050D   85 40 24
0510 853E2B          672                        MOV   2BH,3EH                      ;0510   85 3E 2B
0513 300659          673     Q0513:             JNB   20H.6,Q056F                  ;0513   30 06 59
0516 E4              674                        CLR   A                            ;0516   E4
0517 F508            675                        MOV   08H,A                        ;0517   F5 08
0519 75320A          676     Q0519:             MOV   32H,#0AH                     ;0519   75 32 0A
051C 75370A          677                        MOV   37H,#0AH                     ;051C   75 37 0A
051F 75400A          678                        MOV   40H,#0AH                     ;051F   75 40 0A
0522 753E0A          679                        MOV   3EH,#0AH                     ;0522   75 3E 0A
0525 852E46          680                        MOV   46H,2EH                      ;0525   85 2E 46
0528 854353          681                        MOV   53H,43H                      ;0528   85 43 53
052B 1201CE          682                        LCALL Q01CE                        ;052B   12 01 CE
052E 120989          683                        LCALL Q0989                        ;052E   12 09 89
0531 200603          684                        JB    20H.6,Q0537                  ;0531   20 06 03
0534 750833          685                        MOV   08H,#33H                     ;0534   75 08 33
0537 0508            686     Q0537:             INC   08H                          ;0537   05 08
0539 E508            687                        MOV   A,08H                        ;0539   E5 08
053B C3              688                        CLR   C                            ;053B   C3
053C 9412            689                        SUBB  A,#12H                       ;053C   94 12
053E 40D9            690                        JC    Q0519                        ;053E   40 D9
0540 3006D0          691                        JNB   20H.6,Q0513                  ;0540   30 06 D0
0543 E4              692                        CLR   A                            ;0543   E4
0544 F508            693                        MOV   08H,A                        ;0544   F5 08
0546 E508            694     Q0546:             MOV   A,08H                        ;0546   E5 08
0548 C3              695                        CLR   C                            ;0548   C3
0549 9412            696                        SUBB  A,#12H                       ;0549   94 12
054B 50C6            697                        JNC   Q0513                        ;054B   50 C6
054D 852C32          698                        MOV   32H,2CH                      ;054D   85 2C 32
0550 852137          699                        MOV   37H,21H                      ;0550   85 21 37
0553 852440          700                        MOV   40H,24H                      ;0553   85 24 40
0556 852B3E          701                        MOV   3EH,2BH                      ;0556   85 2B 3E
0559 852E46          702                        MOV   46H,2EH                      ;0559   85 2E 46
055C 854353          703                        MOV   53H,43H                      ;055C   85 43 53
055F 1201CE          704                        LCALL Q01CE                        ;055F   12 01 CE
0562 120989          705                        LCALL Q0989                        ;0562   12 09 89
0565 200603          706                        JB    20H.6,Q056B                  ;0565   20 06 03
0568 750833          707                        MOV   08H,#33H                     ;0568   75 08 33
056B 0508            708     Q056B:             INC   08H                          ;056B   05 08
056D 80D7            709                        SJMP  Q0546                        ;056D   80 D7
056F 300135          710     Q056F:             JNB   20H.1,Q05A6                  ;056F   30 01 34
0572 C201            711                        CLR   20H.1                        ;0572   C2 01
0574 852D49          712                        MOV   49H,2DH                      ;0574   85 2D 49
0577 852A44          713                        MOV   44H,2AH                      ;0577   85 2A 44
057A 853050          714                        MOV   50H,30H                      ;057A   85 30 50
057D 852F4A          715                        MOV   4AH,2FH                      ;057D   85 2F 4A
0580 4A              716     Q057F:             ORL   A,R2                         ;057F   4A
0581 85283F          717                        MOV   3FH,28H                      ;0580   85 28 3F
A51 MACRO ASSEMBLER  08AOYUNDAOJISHI                                                      06/22/2007 17:32:50 PAGE    12

0584 853C4B          718                        MOV   4BH,3CH                      ;0583   85 3C 4B
0587 855123          719                        MOV   23H,51H                      ;0586   85 51 23
058A 852922          720                        MOV   22H,29H                      ;0589   85 29 22
058D 855439          721                        MOV   39H,54H                      ;058C   85 54 39
0590 853847          722                        MOV   47H,38H                      ;058F   85 38 47
0593 852E46          723                        MOV   46H,2EH                      ;0592   85 2E 46
0596 854353          724                        MOV   53H,43H                      ;0595   85 43 53
0599 852C32          725                        MOV   32H,2CH                      ;0598   85 2C 32
059C 852137          726                        MOV   37H,21H                      ;059B   85 21 37
059F 852440          727                        MOV   40H,24H                      ;059E   85 24 40
05A2 852B3E          728                        MOV   3EH,2BH                      ;05A1   85 2B 3E
05A5 D28C            729                        SETB  TR0                          ;05A4   D2 8C
05A7 22              730     Q05A6:             RET                                ;05A6   22
                     731     ;==========================================================================
05A8 787F            732     Q05A7:             MOV   R0,#7FH                      ;05A7   78 7F
05AA E4              733                        CLR   A                            ;05A9   E4
05AB F6              734     Q05AA:             MOV   @R0,A                        ;05AA   F6
05AC D8FD            735                        DJNZ  R0,Q05AA                     ;05AB   D8 FD
05AE 758154          736                        MOV   SP,#54H                      ;05AD   75 81 54
05B1 0205EE          737                        LJMP  Q05EE                        ;05B0   02 05 EE
                     738     ;==========================================================================
05B4 020A26          739     Q05B3:             LJMP  Q0A26                        ;05B3   02 0A 26
                     740     ;==========================================================================
05B7 E4              741     Q05B6:             CLR   A                            ;05B6   E4
05B8 93              742                        MOVC  A,@A+DPTR                    ;05B7   93
05B9 A3              743                        INC   DPTR                         ;05B8   A3
05BA F8              744                        MOV   R0,A                         ;05B9   F8
05BB E4              745     Q05BA:             CLR   A                            ;05BA   E4
05BC 93              746                        MOVC  A,@A+DPTR                    ;05BB   93
05BD A3              747                        INC   DPTR                         ;05BC   A3
05BE 4003            748                        JC    Q05C2                        ;05BD   40 03
05C0 F6              749                        MOV   @R0,A                        ;05BF   F6
05C1 8001            750                        SJMP  Q05C3                        ;05C0   80 01
05C3 F2              751     Q05C2:             MOVX  @R0,A                        ;05C2   F2
05C4 08              752     Q05C3:             INC   R0                           ;05C3   08
05C5 DFF4            753                        DJNZ  R7,Q05BA                     ;05C4   DF F4
05C7 8028            754                        SJMP  Q05F1                        ;05C6   80 29
05C9 E4              755     Q05C8:             CLR   A                            ;05C8   E4
05CA 93              756                        MOVC  A,@A+DPTR                    ;05C9   93
05CB A3              757                        INC   DPTR                         ;05CA   A3
05CC F8              758                        MOV   R0,A                         ;05CB   F8
05CD 5407            759                        ANL   A,#07H                       ;05CC   54 07
05CF 240C            760                        ADD   A,#0CH                       ;05CE   24 0C
05D1 C8              761                        XCH   A,R0                         ;05D0   C8
05D2 C3              762                        CLR   C                            ;05D1   C3
05D3 33              763                        RLC   A                            ;05D2   33
05D4 C4              764                        SWAP  A                            ;05D3   C4
05D5 540F            765                        ANL   A,#0FH                       ;05D4   54 0F
05D7 4420            766                        ORL   A,#20H                       ;05D6   44 20
05D9 C8              767                        XCH   A,R0                         ;05D8   C8
05DA 83              768                        MOVC  A,@A+PC                      ;05D9   83
05DB 4004            769                        JC    Q05E0                        ;05DA   40 04
05DD F4              770                        CPL   A                            ;05DC   F4
05DE 56              771                        ANL   A,@R0                        ;05DD   56
05DF 8001            772                        SJMP  Q05E1                        ;05DE   80 01
05E1 46              773     Q05E0:             ORL   A,@R0                        ;05E0   46
05E2 F6              774     Q05E1:             MOV   @R0,A                        ;05E1   F6
05E3 DFE4            775                        DJNZ  R7,Q05C8                     ;05E2   DF E4
05E5 800A            776                        SJMP  Q05F1                        ;05E4   80 0B
                     777     
05E7 04              778                        INC   A                            ;05E8   04
05E8 08              779                        INC   R0                           ;05E9   08
05E9 102041          780                        JBC   24H.0,Q062D                  ;05EA   10 20 40
05EC 8092            781                        SJMP  Q057F                        ;05ED   80 90
05EE 900798          782     Q05EE:             MOV   DPTR,#0798H                  ;05EE   90 07 98
05F1 E4              783     Q05F1:             CLR   A                            ;05F1   E4
A51 MACRO ASSEMBLER  08AOYUNDAOJISHI                                                      06/22/2007 17:32:50 PAGE    13

05F2 7E01            784                        MOV   R6,#01H                      ;05F2   7E 01
05F4 93              785                        MOVC  A,@A+DPTR                    ;05F4   93
05F5 60BD            786                        JZ    Q05B3                        ;05F5   60 BC
05F7 A3              787                        INC   DPTR                         ;05F7   A3
05F8 FF              788                        MOV   R7,A                         ;05F8   FF
05F9 543F            789                        ANL   A,#3FH                       ;05F9   54 3F
05FB 30E509          790                        JNB   ACC.5,Q0607                  ;05FB   30 E5 09
05FE 541F            791                        ANL   A,#1FH                       ;05FE   54 1F
0600 FE              792                        MOV   R6,A                         ;0600   FE
0601 E4              793                        CLR   A                            ;0601   E4
0602 93              794                        MOVC  A,@A+DPTR                    ;0602   93
0603 A3              795                        INC   DPTR                         ;0603   A3
0604 6001            796                        JZ    Q0607                        ;0604   60 01
0606 0E              797                        INC   R6                           ;0606   0E
0607 CF              798     Q0607:             XCH   A,R7                         ;0607   CF
0608 54C0            799                        ANL   A,#0C0H                      ;0608   54 C0
060A 25E0            800                        ADD   A,ACC                        ;060A   25 E0
060C 60A9            801                        JZ    Q05B6                        ;060C   60 A8
060E 40B9            802                        JC    Q05C8                        ;060E   40 B8
0610 E4              803                        CLR   A                            ;0610   E4
0611 93              804                        MOVC  A,@A+DPTR                    ;0611   93
0612 A3              805                        INC   DPTR                         ;0612   A3
0613 FA              806                        MOV   R2,A                         ;0613   FA
0614 E4              807                        CLR   A                            ;0614   E4
0615 93              808                        MOVC  A,@A+DPTR                    ;0615   93
0616 A3              809                        INC   DPTR                         ;0616   A3
0617 F8              810                        MOV   R0,A                         ;0617   F8
0618 E4              811     Q0618:             CLR   A                            ;0618   E4
0619 93              812                        MOVC  A,@A+DPTR                    ;0619   93
061A A3              813                        INC   DPTR                         ;061A   A3
061B C8              814                        XCH   A,R0                         ;061B   C8
061C C582            815                        XCH   A,DPL                        ;061C   C5 82
061E C8              816                        XCH   A,R0                         ;061E   C8
061F CA              817                        XCH   A,R2                         ;061F   CA
0620 C583            818                        XCH   A,DPH                        ;0620   C5 83
0622 CA              819                        XCH   A,R2                         ;0622   CA
0623 F0              820                        MOVX  @DPTR,A                      ;0623   F0
0624 A3              821                        INC   DPTR                         ;0624   A3
0625 C8              822                        XCH   A,R0                         ;0625   C8
0626 C582            823                        XCH   A,DPL                        ;0626   C5 82
0628 C8              824                        XCH   A,R0                         ;0628   C8
0629 CA              825                        XCH   A,R2                         ;0629   CA
062A C583            826                        XCH   A,DPH                        ;062A   C5 83
062C CA              827                        XCH   A,R2                         ;062C   CA
062D DFE9            828     Q062D:             DJNZ  R7,Q0618                     ;062D   DF E9
062F DEE7            829                        DJNZ  R6,Q0618                     ;062F   DE E7
0631 80BE            830                        SJMP  Q05F1                        ;0631   80 BE
0633 852835          831     Q0633:             MOV   35H,28H                      ;0633   85 28 35
0636 853C27          832                        MOV   27H,3CH                      ;0636   85 3C 27
0639 855131          833                        MOV   31H,51H                      ;0639   85 51 31
063C 852934          834                        MOV   34H,29H                      ;063C   85 29 34
063F 752500          835                        MOV   25H,#00H                     ;063F   75 25 00
0642 852826          836                        MOV   26H,28H                      ;0642   85 28 26
0645 E53C            837                        MOV   A,3CH                        ;0645   E5 3C
0647 C4              838                        SWAP  A                            ;0647   C4
0648 54F0            839                        ANL   A,#0F0H                      ;0648   54 F0
064A F53C            840                        MOV   3CH,A                        ;064A   F5 3C
064C 533CF0          841                        ANL   3CH,#0F0H                    ;064C   53 3C F0
064F E53C            842                        MOV   A,3CH                        ;064F   E5 3C
0651 2526            843                        ADD   A,26H                        ;0651   25 26
0653 F526            844                        MOV   26H,A                        ;0653   F5 26
0655 E4              845                        CLR   A                            ;0655   E4
0656 3525            846                        ADDC  A,25H                        ;0656   35 25
0658 F525            847                        MOV   25H,A                        ;0658   F5 25
065A E526            848                        MOV   A,26H                        ;065A   E5 26
065C 752600          849                        MOV   26H,#00H                     ;065C   75 26 00
A51 MACRO ASSEMBLER  08AOYUNDAOJISHI                                                      06/22/2007 17:32:50 PAGE    14

065F F525            850                        MOV   25H,A                        ;065F   F5 25
0661 E551            851                        MOV   A,51H                        ;0661   E5 51
0663 2526            852                        ADD   A,26H                        ;0663   25 26
0665 F526            853                        MOV   26H,A                        ;0665   F5 26
0667 E4              854                        CLR   A                            ;0667   E4
0668 3525            855                        ADDC  A,25H                        ;0668   35 25
066A F525            856                        MOV   25H,A                        ;066A   F5 25
066C E529            857                        MOV   A,29H                        ;066C   E5 29
066E C4              858                        SWAP  A                            ;066E   C4
066F 54F0            859                        ANL   A,#0F0H                      ;066F   54 F0
0671 F529            860                        MOV   29H,A                        ;0671   F5 29
0673 5329F0          861                        ANL   29H,#0F0H                    ;0673   53 29 F0
0676 E529            862                        MOV   A,29H                        ;0676   E5 29
0678 2526            863                        ADD   A,26H                        ;0678   25 26
067A F526            864                        MOV   26H,A                        ;067A   F5 26
067C E4              865                        CLR   A                            ;067C   E4
067D 3525            866                        ADDC  A,25H                        ;067D   35 25
067F F525            867                        MOV   25H,A                        ;067F   F5 25
0681 F54C            868                        MOV   4CH,A                        ;0681   F5 4C
0683 754D00          869                        MOV   4DH,#00H                     ;0683   75 4D 00
0686 E54C            870                        MOV   A,4CH                        ;0686   E5 4C
0688 F54D            871                        MOV   4DH,A                        ;0688   F5 4D
068A 754C00          872                        MOV   4CH,#00H                     ;068A   75 4C 00
068D 754E00          873                        MOV   4EH,#00H                     ;068D   75 4E 00
0690 85264F          874                        MOV   4FH,26H                      ;0690   85 26 4F
0693 E54F            875                        MOV   A,4FH                        ;0693   E5 4F
0695 754F00          876                        MOV   4FH,#00H                     ;0695   75 4F 00
0698 F54E            877                        MOV   4EH,A                        ;0698   F5 4E
069A E54D            878                        MOV   A,4DH                        ;069A   E5 4D
069C 254F            879                        ADD   A,4FH                        ;069C   25 4F
069E F526            880                        MOV   26H,A                        ;069E   F5 26
06A0 E54C            881                        MOV   A,4CH                        ;06A0   E5 4C
06A2 354E            882                        ADDC  A,4EH                        ;06A2   35 4E
06A4 F525            883                        MOV   25H,A                        ;06A4   F5 25
06A6 853528          884                        MOV   28H,35H                      ;06A6   85 35 28
06A9 85273C          885                        MOV   3CH,27H                      ;06A9   85 27 3C
06AC 853151          886                        MOV   51H,31H                      ;06AC   85 31 51
06AF 853429          887                        MOV   29H,34H                      ;06AF   85 34 29
06B2 22              888                        RET                                ;06B2   22
                     889     ;==========================================================================
06B3 0533            890     Q06B3:             INC   33H                          ;06B3   05 33
06B5 E533            891                        MOV   A,33H                        ;06B5   E5 33
06B7 B40106          892                        CJNE  A,#01H,Q06C0                 ;06B7   B4 01 06
06BA D205            893                        SETB  20H.5                        ;06BA   D2 05
06BC C200            894                        CLR   20H.0                        ;06BC   C2 00
06BE 8009            895                        SJMP  Q06C9                        ;06BE   80 09
06C0 E533            896     Q06C0:             MOV   A,33H                        ;06C0   E5 33
06C2 B40208          897                        CJNE  A,#02H,Q06CD                 ;06C2   B4 02 08
06C5 C205            898                        CLR   20H.5                        ;06C5   C2 05
06C7 D200            899                        SETB  20H.0                        ;06C7   D2 00
06C9 C204            900     Q06C9:             CLR   20H.4                        ;06C9   C2 04
06CB 800B            901                        SJMP  Q06D8                        ;06CB   80 0B
06CD E533            902     Q06CD:             MOV   A,33H                        ;06CD   E5 33
06CF B4030A          903                        CJNE  A,#03H,Q06DC                 ;06CF   B4 03 0A
06D2 C205            904                        CLR   20H.5                        ;06D2   C2 05
06D4 C200            905                        CLR   20H.0                        ;06D4   C2 00
06D6 D204            906                        SETB  20H.4                        ;06D6   D2 04
06D8 C203            907     Q06D8:             CLR   20H.3                        ;06D8   C2 03
06DA 800D            908                        SJMP  Q06E9                        ;06DA   80 0D
06DC E533            909     Q06DC:             MOV   A,33H                        ;06DC   E5 33
06DE B4040C          910                        CJNE  A,#04H,Q06ED                 ;06DE   B4 04 0C
06E1 C205            911                        CLR   20H.5                        ;06E1   C2 05
06E3 C200            912                        CLR   20H.0                        ;06E3   C2 00
06E5 C204            913                        CLR   20H.4                        ;06E5   C2 04
06E7 D203            914                        SETB  20H.3                        ;06E7   D2 03
06E9 C202            915     Q06E9:             CLR   20H.2                        ;06E9   C2 02
A51 MACRO ASSEMBLER  08AOYUNDAOJISHI                                                      06/22/2007 17:32:50 PAGE    15

06EB 800F            916                        SJMP  Q06FC                        ;06EB   80 0F
06ED E533            917     Q06ED:             MOV   A,33H                        ;06ED   E5 33
06EF B4050F          918                        CJNE  A,#05H,Q0701                 ;06EF   B4 05 0F
06F2 C205            919                        CLR   20H.5                        ;06F2   C2 05
06F4 C200            920                        CLR   20H.0                        ;06F4   C2 00
06F6 C204            921                        CLR   20H.4                        ;06F6   C2 04
06F8 C203            922                        CLR   20H.3                        ;06F8   C2 03
06FA D202            923                        SETB  20H.2                        ;06FA   D2 02
06FC C206            924     Q06FC:             CLR   20H.6                        ;06FC   C2 06
06FE C201            925                        CLR   20H.1                        ;06FE   C2 01
0700 22              926                        RET                                ;0700   22
                     927     ;==========================================================================
0701 E533            928     Q0701:             MOV   A,33H                        ;0701   E5 33
0703 B4060F          929                        CJNE  A,#06H,Q0715                 ;0703   B4 06 0F
0706 C205            930                        CLR   20H.5                        ;0706   C2 05
0708 C200            931                        CLR   20H.0                        ;0708   C2 00
070A C204            932                        CLR   20H.4                        ;070A   C2 04
070C C203            933                        CLR   20H.3                        ;070C   C2 03
070E C202            934                        CLR   20H.2                        ;070E   C2 02
0710 D206            935                        SETB  20H.6                        ;0710   D2 06
0712 C201            936                        CLR   20H.1                        ;0712   C2 01
0714 22              937                        RET                                ;0714   22
                     938     ;==========================================================================
0715 E533            939     Q0715:             MOV   A,33H                        ;0715   E5 33
0717 B40711          940                        CJNE  A,#07H,Q072B                 ;0717   B4 07 11
071A E4              941                        CLR   A                            ;071A   E4
071B F533            942                        MOV   33H,A                        ;071B   F5 33
071D C205            943                        CLR   20H.5                        ;071D   C2 05
071F C200            944                        CLR   20H.0                        ;071F   C2 00
0721 C204            945                        CLR   20H.4                        ;0721   C2 04
0723 C203            946                        CLR   20H.3                        ;0723   C2 03
0725 C202            947                        CLR   20H.2                        ;0725   C2 02
0727 C206            948                        CLR   20H.6                        ;0727   C2 06
0729 D201            949                        SETB  20H.1                        ;0729   D2 01
072B 22              950     Q072B:             RET                                ;072B   22
                     951     ;==========================================================================
072C 300468          952     Q072C:             JNB   20H.4,Q0797                  ;072C   30 04 68
072F 852229          953                        MOV   29H,22H                      ;072F   85 22 29
0732 852351          954                        MOV   51H,23H                      ;0732   85 23 51
0735 854B3C          955                        MOV   3CH,4BH                      ;0735   85 4B 3C
0738 853F28          956                        MOV   28H,3FH                      ;0738   85 3F 28
073B 300459          957     Q073B:             JNB   20H.4,Q0797                  ;073B   30 04 59
073E E4              958                        CLR   A                            ;073E   E4
073F F508            959                        MOV   08H,A                        ;073F   F5 08
0741 75220A          960     Q0741:             MOV   22H,#0AH                     ;0741   75 22 0A
0744 75230A          961                        MOV   23H,#0AH                     ;0744   75 23 0A
0747 754B0A          962                        MOV   4BH,#0AH                     ;0747   75 4B 0A
074A 753F0A          963                        MOV   3FH,#0AH                     ;074A   75 3F 0A
074D 852D49          964                        MOV   49H,2DH                      ;074D   85 2D 49
0750 852A44          965                        MOV   44H,2AH                      ;0750   85 2A 44
0753 1201CE          966                        LCALL Q01CE                        ;0753   12 01 CE
0756 120989          967                        LCALL Q0989                        ;0756   12 09 89
0759 200403          968                        JB    20H.4,Q075F                  ;0759   20 04 03
075C 750833          969                        MOV   08H,#33H                     ;075C   75 08 33
075F 0508            970     Q075F:             INC   08H                          ;075F   05 08
0761 E508            971                        MOV   A,08H                        ;0761   E5 08
0763 C3              972                        CLR   C                            ;0763   C3
0764 9412            973                        SUBB  A,#12H                       ;0764   94 12
0766 40D9            974                        JC    Q0741                        ;0766   40 D9
0768 3004D0          975                        JNB   20H.4,Q073B                  ;0768   30 04 D0
076B E4              976                        CLR   A                            ;076B   E4
076C F508            977                        MOV   08H,A                        ;076C   F5 08
076E E508            978     Q076E:             MOV   A,08H                        ;076E   E5 08
0770 C3              979                        CLR   C                            ;0770   C3
0771 9412            980                        SUBB  A,#12H                       ;0771   94 12
0773 50C6            981                        JNC   Q073B                        ;0773   50 C6
A51 MACRO ASSEMBLER  08AOYUNDAOJISHI                                                      06/22/2007 17:32:50 PAGE    16

0775 852922          982                        MOV   22H,29H                      ;0775   85 29 22
0778 855123          983                        MOV   23H,51H                      ;0778   85 51 23
077B 853C4B          984                        MOV   4BH,3CH                      ;077B   85 3C 4B
077E 85283F          985                        MOV   3FH,28H                      ;077E   85 28 3F
0781 852D49          986                        MOV   49H,2DH                      ;0781   85 2D 49
0784 852A44          987                        MOV   44H,2AH                      ;0784   85 2A 44
0787 1201CE          988                        LCALL Q01CE                        ;0787   12 01 CE
078A 120989          989                        LCALL Q0989                        ;078A   12 09 89
078D 200403          990                        JB    20H.4,Q0793                  ;078D   20 04 03
0790 750833          991                        MOV   08H,#33H                     ;0790   75 08 33
0793 0508            992     Q0793:             INC   08H                          ;0793   05 08
0795 80D7            993                        SJMP  Q076E                        ;0795   80 D7
0797 22              994     Q0797:             RET                                ;0797   22
                     995     ;==========================================================================
0798 01480001        996     Q0798:           DB  01H, 48H, 00H, 01H, 52H, 18H, 01H, 3DH     ;.H..R..=
079C 5218013D                
07A0 00013A00        997     Q07A0:           DB  00H, 01H, 3AH, 00H, 01H, 49H, 00H, 01H     ;..:..I..
07A4 01490001                
07A8 44000150        998     Q07A8:           DB  44H, 00H, 01H, 50H, 00H, 01H, 4AH, 00H     ;D..P..J.
07AC 00014A00                
07B0 01220201        999     Q07B0:           DB  01H, 22H, 02H, 01H, 23H, 00H, 01H, 4BH     ;."..#..K
07B4 2300014B                
07B8 00013F07       1000     Q07B8:           DB  00H, 01H, 3FH, 07H, 01H, 47H, 00H, 01H     ;..?..G..
07BC 01470001                
07C0 39060153       1001     Q07C0:           DB  39H, 06H, 01H, 53H, 02H, 01H, 46H, 06H     ;9..S..F.
07C4 02014606                
07C8 01320001       1002     Q07C8:           DB  01H, 32H, 00H, 01H, 37H, 01H, 01H, 40H     ;.2..7..@
07CC 37010140                
07D0 04013E00       1003     Q07D0:           DB  04H, 01H, 3EH, 00H, 01H, 42H, 1FH, 01H     ;..>..B..
07D4 01421F01                
07D8 451E0136       1004     Q07D8:           DB  45H, 1EH, 01H, 36H, 1EH, 01H, 41H, 0CH     ;E..6..A.
07DC 1E01410C                
07E0 013300C1       1005     Q07E0:           DB  01H, 33H, 00H,0C1H, 05H,0C1H, 00H,0C1H     ;.3......
07E4 05C100C1                
07E8 04C103C1       1006     Q07E8:           DB  04H,0C1H, 03H,0C1H, 02H,0C1H, 06H,0C1H     ;........
07EC 02C106C1                
07F0 0100           1007     Q07F0:           DB  01H, 00H   ;..
                    1008     ;==========================================================================
07F2 BC000B         1009     Q07F2:             CJNE  R4,#00H,Q0800                ;07F2   BC 00 0B
07F5 BE0029         1010                        CJNE  R6,#00H,Q0821                ;07F5   BE 00 29
07F8 EF             1011                        MOV   A,R7                         ;07F8   EF
07F9 8DF0           1012                        MOV   B,R5                         ;07F9   8D F0
07FB 84             1013                        DIV   AB                           ;07FB   84
07FC FF             1014                        MOV   R7,A                         ;07FC   FF
07FD ADF0           1015                        MOV   R5,B                         ;07FD   AD F0
07FF 22             1016                        RET                                ;07FF   22
                    1017     ;==========================================================================
0800 E4             1018     Q0800:             CLR   A                            ;0800   E4
0801 CC             1019                        XCH   A,R4                         ;0801   CC
0802 F8             1020                        MOV   R0,A                         ;0802   F8
0803 75F008         1021                        MOV   B,#08H                       ;0803   75 F0 08
0806 EF             1022     Q0806:             MOV   A,R7                         ;0806   EF
0807 2F             1023                        ADD   A,R7                         ;0807   2F
0808 FF             1024                        MOV   R7,A                         ;0808   FF
0809 EE             1025                        MOV   A,R6                         ;0809   EE
080A 33             1026                        RLC   A                            ;080A   33
080B FE             1027                        MOV   R6,A                         ;080B   FE
080C EC             1028                        MOV   A,R4                         ;080C   EC
080D 33             1029                        RLC   A                            ;080D   33
080E FC             1030                        MOV   R4,A                         ;080E   FC
080F EE             1031                        MOV   A,R6                         ;080F   EE
0810 9D             1032                        SUBB  A,R5                         ;0810   9D
0811 EC             1033                        MOV   A,R4                         ;0811   EC
0812 98             1034                        SUBB  A,R0                         ;0812   98
0813 4005           1035                        JC    Q081A                        ;0813   40 05
0815 FC             1036                        MOV   R4,A                         ;0815   FC
A51 MACRO ASSEMBLER  08AOYUNDAOJISHI                                                      06/22/2007 17:32:50 PAGE    17

0816 EE             1037                        MOV   A,R6                         ;0816   EE
0817 9D             1038                        SUBB  A,R5                         ;0817   9D
0818 FE             1039                        MOV   R6,A                         ;0818   FE
0819 0F             1040                        INC   R7                           ;0819   0F
081A D5F0E9         1041     Q081A:             DJNZ  B,Q0806                      ;081A   D5 F0 E9
081D E4             1042                        CLR   A                            ;081D   E4
081E CE             1043                        XCH   A,R6                         ;081E   CE
081F FD             1044                        MOV   R5,A                         ;081F   FD
0820 22             1045                        RET                                ;0820   22
                    1046     ;==========================================================================
0821 ED             1047     Q0821:             MOV   A,R5                         ;0821   ED
0822 F8             1048                        MOV   R0,A                         ;0822   F8
0823 F5F0           1049                        MOV   B,A                          ;0823   F5 F0
0825 EE             1050                        MOV   A,R6                         ;0825   EE
0826 84             1051                        DIV   AB                           ;0826   84
0827 20D21C         1052                        JB    OV,Q0846                     ;0827   20 D2 1C
082A FE             1053                        MOV   R6,A                         ;082A   FE
082B ADF0           1054                        MOV   R5,B                         ;082B   AD F0
082D 75F008         1055                        MOV   B,#08H                       ;082D   75 F0 08
0830 EF             1056     Q0830:             MOV   A,R7                         ;0830   EF
0831 2F             1057                        ADD   A,R7                         ;0831   2F
0832 FF             1058                        MOV   R7,A                         ;0832   FF
0833 ED             1059                        MOV   A,R5                         ;0833   ED
0834 33             1060                        RLC   A                            ;0834   33
0835 FD             1061                        MOV   R5,A                         ;0835   FD
0836 4007           1062                        JC    Q083F                        ;0836   40 07
0838 98             1063                        SUBB  A,R0                         ;0838   98
0839 5006           1064                        JNC   Q0841                        ;0839   50 06
083B D5F0F2         1065                        DJNZ  B,Q0830                      ;083B   D5 F0 F2
083E 22             1066                        RET                                ;083E   22
                    1067     ;==========================================================================
083F C3             1068     Q083F:             CLR   C                            ;083F   C3
0840 98             1069                        SUBB  A,R0                         ;0840   98
0841 FD             1070     Q0841:             MOV   R5,A                         ;0841   FD
0842 0F             1071                        INC   R7                           ;0842   0F
0843 D5F0EA         1072                        DJNZ  B,Q0830                      ;0843   D5 F0 EA
0846 22             1073     Q0846:             RET                                ;0846   22
                    1074     ;==========================================================================
0847 30004A         1075     Q0847:             JNB   20H.0,Q0894                  ;0847   30 00 4A
084A 85492D         1076                        MOV   2DH,49H                      ;084A   85 49 2D
084D 85442A         1077                        MOV   2AH,44H                      ;084D   85 44 2A
0850 300041         1078     Q0850:             JNB   20H.0,Q0894                  ;0850   30 00 41
0853 E4             1079                        CLR   A                            ;0853   E4
0854 F508           1080                        MOV   08H,A                        ;0854   F5 08
0856 75490A         1081     Q0856:             MOV   49H,#0AH                     ;0856   75 49 0A
0859 75440A         1082                        MOV   44H,#0AH                     ;0859   75 44 0A
085C 1201C8         1083                        LCALL Q01C8                        ;085C   12 01 C8
085F 120989         1084                        LCALL Q0989                        ;085F   12 09 89
0862 200003         1085                        JB    20H.0,Q0868                  ;0862   20 00 03
0865 750833         1086                        MOV   08H,#33H                     ;0865   75 08 33
0868 0508           1087     Q0868:             INC   08H                          ;0868   05 08
086A E508           1088                        MOV   A,08H                        ;086A   E5 08
086C C3             1089                        CLR   C                            ;086C   C3
086D 9412           1090                        SUBB  A,#12H                       ;086D   94 12
086F 40E5           1091                        JC    Q0856                        ;086F   40 E5
0871 3000DC         1092                        JNB   20H.0,Q0850                  ;0871   30 00 DC
0874 E4             1093                        CLR   A                            ;0874   E4
0875 F508           1094                        MOV   08H,A                        ;0875   F5 08
0877 E508           1095     Q0877:             MOV   A,08H                        ;0877   E5 08
0879 C3             1096                        CLR   C                            ;0879   C3
087A 9412           1097                        SUBB  A,#12H                       ;087A   94 12
087C 50D2           1098                        JNC   Q0850                        ;087C   50 D2
087E 852D49         1099                        MOV   49H,2DH                      ;087E   85 2D 49
0881 852A44         1100                        MOV   44H,2AH                      ;0881   85 2A 44
0884 1201C8         1101                        LCALL Q01C8                        ;0884   12 01 C8
0887 120989         1102                        LCALL Q0989                        ;0887   12 09 89
A51 MACRO ASSEMBLER  08AOYUNDAOJISHI                                                      06/22/2007 17:32:50 PAGE    18

088A 200003         1103                        JB    20H.0,Q0890                  ;088A   20 00 03
088D 750833         1104                        MOV   08H,#33H                     ;088D   75 08 33
0890 0508           1105     Q0890:             INC   08H                          ;0890   05 08
0892 80E3           1106                        SJMP  Q0877                        ;0892   80 E3
0894 22             1107     Q0894:             RET                                ;0894   22
                    1108     ;==========================================================================
0895 208C08         1109     Q0895:             JB    TR0,Q08A0                    ;0895   20 8C 08
0898 1209B7         1110                        LCALL Q09B7                        ;0898   12 09 B7
089B 8F45           1111                        MOV   45H,R7                       ;089B   8F 45
089D 85453B         1112                        MOV   3BH,45H                      ;089D   85 45 3B
08A0 30033E         1113     Q08A0:             JNB   20H.3,Q08E1                  ;08A0   30 03 3E
08A3 853954         1114                        MOV   54H,39H                      ;08A3   85 39 54
08A6 854738         1115                        MOV   38H,47H                      ;08A6   85 47 38
08A9 300335         1116     Q08A9:             JNB   20H.3,Q08E1                  ;08A9   30 03 35
08AC E4             1117                        CLR   A                            ;08AC   E4
08AD F508           1118                        MOV   08H,A                        ;08AD   F5 08
08AF 75390A         1119     Q08AF:             MOV   39H,#0AH                     ;08AF   75 39 0A
08B2 75470A         1120                        MOV   47H,#0AH                     ;08B2   75 47 0A
08B5 12097A         1121                        LCALL Q097A                        ;08B5   12 09 7A
08B8 200303         1122                        JB    20H.3,Q08BE                  ;08B8   20 03 03
08BB 750833         1123                        MOV   08H,#33H                     ;08BB   75 08 33
08BE 0508           1124     Q08BE:             INC   08H                          ;08BE   05 08
08C0 E508           1125                        MOV   A,08H                        ;08C0   E5 08
08C2 C3             1126                        CLR   C                            ;08C2   C3
08C3 9412           1127                        SUBB  A,#12H                       ;08C3   94 12
08C5 40E8           1128                        JC    Q08AF                        ;08C5   40 E8
08C7 3003DF         1129                        JNB   20H.3,Q08A9                  ;08C7   30 03 DF
08CA E4             1130                        CLR   A                            ;08CA   E4
08CB F508           1131                        MOV   08H,A                        ;08CB   F5 08
08CD E508           1132     Q08CD:             MOV   A,08H                        ;08CD   E5 08
08CF C3             1133                        CLR   C                            ;08CF   C3
08D0 9412           1134                        SUBB  A,#12H                       ;08D0   94 12
08D2 50D5           1135                        JNC   Q08A9                        ;08D2   50 D5
08D4 120974         1136                        LCALL Q0974                        ;08D4   12 09 74
08D7 200303         1137                        JB    20H.3,Q08DD                  ;08D7   20 03 03
08DA 750833         1138                        MOV   08H,#33H                     ;08DA   75 08 33
08DD 0508           1139     Q08DD:             INC   08H                          ;08DD   05 08
08DF 80EC           1140                        SJMP  Q08CD                        ;08DF   80 EC
08E1 22             1141     Q08E1:             RET                                ;08E1   22
                    1142     ;==========================================================================
08E2 300546         1143     Q08E2:             JNB   20H.5,Q092B                  ;08E2   30 05 46
08E5 C28C           1144                        CLR   TR0                          ;08E5   C2 8C
08E7 855030         1145                        MOV   30H,50H                      ;08E7   85 50 30
08EA 854A2F         1146                        MOV   2FH,4AH                      ;08EA   85 4A 2F
08ED 30053B         1147     Q08ED:             JNB   20H.5,Q092B                  ;08ED   30 05 3B
08F0 E4             1148                        CLR   A                            ;08F0   E4
08F1 F508           1149                        MOV   08H,A                        ;08F1   F5 08
08F3 75500A         1150     Q08F3:             MOV   50H,#0AH                     ;08F3   75 50 0A
08F6 754A0A         1151                        MOV   4AH,#0AH                     ;08F6   75 4A 0A
08F9 1201CE         1152                        LCALL Q01CE                        ;08F9   12 01 CE
08FC 120989         1153                        LCALL Q0989                        ;08FC   12 09 89
08FF 200503         1154                        JB    20H.5,Q0905                  ;08FF   20 05 03
0902 750833         1155                        MOV   08H,#33H                     ;0902   75 08 33
0905 0508           1156     Q0905:             INC   08H                          ;0905   05 08
0907 E508           1157                        MOV   A,08H                        ;0907   E5 08
0909 C3             1158                        CLR   C                            ;0909   C3
090A 9412           1159                        SUBB  A,#12H                       ;090A   94 12
090C 40E5           1160                        JC    Q08F3                        ;090C   40 E5
090E 3005DC         1161                        JNB   20H.5,Q08ED                  ;090E   30 05 DC
0911 E4             1162                        CLR   A                            ;0911   E4
0912 F508           1163                        MOV   08H,A                        ;0912   F5 08
0914 E508           1164     Q0914:             MOV   A,08H                        ;0914   E5 08
0916 C3             1165                        CLR   C                            ;0916   C3
0917 9412           1166                        SUBB  A,#12H                       ;0917   94 12
0919 50D2           1167                        JNC   Q08ED                        ;0919   50 D2
091B 1201C8         1168                        LCALL Q01C8                        ;091B   12 01 C8
A51 MACRO ASSEMBLER  08AOYUNDAOJISHI                                                      06/22/2007 17:32:50 PAGE    19

091E 120989         1169                        LCALL Q0989                        ;091E   12 09 89
0921 200503         1170                        JB    20H.5,Q0927                  ;0921   20 05 03
0924 750833         1171                        MOV   08H,#33H                     ;0924   75 08 33
0927 0508           1172     Q0927:             INC   08H                          ;0927   05 08
0929 80E9           1173                        SJMP  Q0914                        ;0929   80 E9
092B 22             1174     Q092B:             RET                                ;092B   22
                    1175     ;==========================================================================
092C 300244         1176     Q092C:             JNB   20H.2,Q0973                  ;092C   30 02 44
092F 85462E         1177                        MOV   2EH,46H                      ;092F   85 46 2E
0932 855343         1178                        MOV   43H,53H                      ;0932   85 53 43
0935 30023B         1179     Q0935:             JNB   20H.2,Q0973                  ;0935   30 02 3B
0938 E4             1180                        CLR   A                            ;0938   E4
0939 F508           1181                        MOV   08H,A                        ;0939   F5 08
093B 75460A         1182     Q093B:             MOV   46H,#0AH                     ;093B   75 46 0A
093E 75530A         1183                        MOV   53H,#0AH                     ;093E   75 53 0A
0941 120974         1184                        LCALL Q0974                        ;0941   12 09 74
0944 200203         1185                        JB    20H.2,Q094A                  ;0944   20 02 03
0947 750833         1186                        MOV   08H,#33H                     ;0947   75 08 33
094A 0508           1187     Q094A:             INC   08H                          ;094A   05 08
094C E508           1188                        MOV   A,08H                        ;094C   E5 08
094E C3             1189                        CLR   C                            ;094E   C3
094F 9412           1190                        SUBB  A,#12H                       ;094F   94 12
0951 40E8           1191                        JC    Q093B                        ;0951   40 E8
0953 3002DF         1192                        JNB   20H.2,Q0935                  ;0953   30 02 DF
0956 E4             1193                        CLR   A                            ;0956   E4
0957 F508           1194                        MOV   08H,A                        ;0957   F5 08
0959 E508           1195     Q0959:             MOV   A,08H                        ;0959   E5 08
095B C3             1196                        CLR   C                            ;095B   C3
095C 9412           1197                        SUBB  A,#12H                       ;095C   94 12
095E 50D5           1198                        JNC   Q0935                        ;095E   50 D5
0960 852E46         1199                        MOV   46H,2EH                      ;0960   85 2E 46
0963 854353         1200                        MOV   53H,43H                      ;0963   85 43 53
0966 120974         1201                        LCALL Q0974                        ;0966   12 09 74
0969 200203         1202                        JB    20H.2,Q096F                  ;0969   20 02 03
096C 750833         1203                        MOV   08H,#33H                     ;096C   75 08 33
096F 0508           1204     Q096F:             INC   08H                          ;096F   05 08
0971 80E6           1205                        SJMP  Q0959                        ;0971   80 E6
0973 22             1206     Q0973:             RET                                ;0973   22
                    1207     ;==========================================================================
0974 855439         1208     Q0974:             MOV   39H,54H                      ;0974   85 54 39
0977 853847         1209                        MOV   47H,38H                      ;0977   85 38 47
097A 852922         1210     Q097A:             MOV   22H,29H                      ;097A   85 29 22
097D 855123         1211                        MOV   23H,51H                      ;097D   85 51 23
0980 853C4B         1212                        MOV   4BH,3CH                      ;0980   85 3C 4B
0983 85283F         1213                        MOV   3FH,28H                      ;0983   85 28 3F
0986 1201CE         1214                        LCALL Q01CE                        ;0986   12 01 CE
0989 7590FF         1215     Q0989:             MOV   P1,#0FFH                     ;0989   75 90 FF
098C E590           1216                        MOV   A,P1                         ;098C   E5 90
098E F4             1217                        CPL   A                            ;098E   F4
098F 6025           1218                        JZ    Q09B6                        ;098F   60 25
0991 1201CE         1219                        LCALL Q01CE                        ;0991   12 01 CE
0994 1201CE         1220                        LCALL Q01CE                        ;0994   12 01 CE
0997 1201CE         1221                        LCALL Q01CE                        ;0997   12 01 CE
099A E590           1222                        MOV   A,P1                         ;099A   E5 90
099C F4             1223                        CPL   A                            ;099C   F4
099D 6017           1224                        JZ    Q09B6                        ;099D   60 17
099F AF90           1225                        MOV   R7,P1                        ;099F   AF 90
09A1 EF             1226                        MOV   A,R7                         ;09A1   EF
09A2 2405           1227                        ADD   A,#05H                       ;09A2   24 05
09A4 600D           1228                        JZ    Q09B3                        ;09A4   60 0D
09A6 24FE           1229                        ADD   A,#0FEH                      ;09A6   24 FE
09A8 6006           1230                        JZ    Q09B0                        ;09A8   60 06
09AA 14             1231                        DEC   A                            ;09AA   14
09AB 7009           1232                        JNZ   Q09B6                        ;09AB   70 09
09AD 0206B3         1233                        LJMP  Q06B3                        ;09AD   02 06 B3
                    1234     ;==========================================================================
A51 MACRO ASSEMBLER  08AOYUNDAOJISHI                                                      06/22/2007 17:32:50 PAGE    20

09B0 020000         1235     Q09B0:             LJMP  Q0000                        ;09B0   02 00 00
                    1236     ;==========================================================================
09B3 120367         1237     Q09B3:             LCALL Q0367                        ;09B3   12 03 67
09B6 22             1238     Q09B6:             RET                                ;09B6   22
                    1239     ;==========================================================================
09B7 120633         1240     Q09B7:             LCALL Q0633                        ;09B7   12 06 33
09BA E526           1241                        MOV   A,26H                        ;09BA   E5 26
09BC 5403           1242                        ANL   A,#03H                       ;09BC   54 03
09BE 700E           1243                        JNZ   Q09CE                        ;09BE   70 0E
09C0 AE25           1244                        MOV   R6,25H                       ;09C0   AE 25
09C2 AF26           1245                        MOV   R7,26H                       ;09C2   AF 26
09C4 FC             1246                        MOV   R4,A                         ;09C4   FC
09C5 7D64           1247                        MOV   R5,#64H                      ;09C5   7D 64
09C7 1207F2         1248                        LCALL Q07F2                        ;09C7   12 07 F2
09CA ED             1249                        MOV   A,R5                         ;09CA   ED
09CB 4C             1250                        ORL   A,R4                         ;09CB   4C
09CC 701E           1251                        JNZ   Q09EC                        ;09CC   70 1E
09CE AE25           1252     Q09CE:             MOV   R6,25H                       ;09CE   AE 25
09D0 AF26           1253                        MOV   R7,26H                       ;09D0   AF 26
09D2 7C00           1254                        MOV   R4,#00H                      ;09D2   7C 00
09D4 7D64           1255                        MOV   R5,#64H                      ;09D4   7D 64
09D6 1207F2         1256                        LCALL Q07F2                        ;09D6   12 07 F2
09D9 ED             1257                        MOV   A,R5                         ;09D9   ED
09DA 4C             1258                        ORL   A,R4                         ;09DA   4C
09DB 7012           1259                        JNZ   Q09EF                        ;09DB   70 12
09DD AE25           1260                        MOV   R6,25H                       ;09DD   AE 25
09DF AF26           1261                        MOV   R7,26H                       ;09DF   AF 26
09E1 7C01           1262                        MOV   R4,#01H                      ;09E1   7C 01
09E3 7D90           1263                        MOV   R5,#90H                      ;09E3   7D 90
09E5 1207F2         1264                        LCALL Q07F2                        ;09E5   12 07 F2
09E8 ED             1265                        MOV   A,R5                         ;09E8   ED
09E9 4C             1266                        ORL   A,R4                         ;09E9   4C
09EA 7003           1267                        JNZ   Q09EF                        ;09EA   70 03
09EC 7F1D           1268     Q09EC:             MOV   R7,#1DH                      ;09EC   7F 1D
09EE 22             1269                        RET                                ;09EE   22
                    1270     ;==========================================================================
09EF 7F1C           1271     Q09EF:             MOV   R7,#1CH                      ;09EF   7F 1C
09F1 22             1272                        RET                                ;09F1   22
                    1273     ;==========================================================================
09F2 25E0           1274     Q09F2:             ADD   A,ACC                        ;09F2   25 E0
09F4 246D           1275                        ADD   A,#6DH                       ;09F4   24 6D
09F6 F582           1276                        MOV   DPL,A                        ;09F6   F5 82
09F8 E4             1277                        CLR   A                            ;09F8   E4
09F9 340A           1278                        ADDC  A,#0AH                       ;09F9   34 0A
09FB F583           1279                        MOV   DPH,A                        ;09FB   F5 83
09FD 7401           1280                        MOV   A,#01H                       ;09FD   74 01
09FF 93             1281                        MOVC  A,@A+DPTR                    ;09FF   93
0A00 90EFFF         1282     Q0A00:             MOV   DPTR,#0EFFFH                 ;0A00   90 EF FF
0A03 F0             1283     Q0A03:             MOVX  @DPTR,A                      ;0A03   F0
0A04 7F03           1284                        MOV   R7,#03H                      ;0A04   7F 03
0A06 7E00           1285                        MOV   R6,#00H                      ;0A06   7E 00
0A08 D3             1286     Q0A08:             SETB  C                            ;0A08   D3
0A09 EF             1287                        MOV   A,R7                         ;0A09   EF
0A0A 9400           1288                        SUBB  A,#00H                       ;0A0A   94 00
0A0C EE             1289                        MOV   A,R6                         ;0A0C   EE
0A0D 9400           1290                        SUBB  A,#00H                       ;0A0D   94 00
0A0F 4014           1291                        JC    Q0A25                        ;0A0F   40 14
0A11 7D32           1292                        MOV   R5,#32H                      ;0A11   7D 32
0A13 7C00           1293                        MOV   R4,#00H                      ;0A13   7C 00
0A15 ED             1294     Q0A15:             MOV   A,R5                         ;0A15   ED
0A16 1D             1295                        DEC   R5                           ;0A16   1D
0A17 7001           1296                        JNZ   Q0A1A                        ;0A17   70 01
0A19 1C             1297                        DEC   R4                           ;0A19   1C
0A1A ED             1298     Q0A1A:             MOV   A,R5                         ;0A1A   ED
0A1B 4C             1299                        ORL   A,R4                         ;0A1B   4C
0A1C 70F7           1300                        JNZ   Q0A15                        ;0A1C   70 F7
A51 MACRO ASSEMBLER  08AOYUNDAOJISHI                                                      06/22/2007 17:32:50 PAGE    21

0A1E EF             1301                        MOV   A,R7                         ;0A1E   EF
0A1F 1F             1302                        DEC   R7                           ;0A1F   1F
0A20 70E6           1303                        JNZ   Q0A08                        ;0A20   70 E6
0A22 1E             1304                        DEC   R6                           ;0A22   1E
0A23 80E3           1305                        SJMP  Q0A08                        ;0A23   80 E3
0A25 22             1306     Q0A25:             RET                                ;0A25   22
                    1307     ;==========================================================================
0A26 758901         1308     Q0A26:             MOV   TMOD,#01H                    ;0A26   75 89 01
0A29 758C3C         1309                        MOV   TH0,#3CH                     ;0A29   75 8C 3C
0A2C 758AB0         1310                        MOV   TL0,#0B0H                    ;0A2C   75 8A B0
0A2F D2AF           1311                        SETB  EA                           ;0A2F   D2 AF
0A31 D2A9           1312                        SETB  ET0                          ;0A31   D2 A9
0A33 D28C           1313                        SETB  TR0                          ;0A33   D2 8C
0A35 120989         1314     Q0A35:             LCALL Q0989                        ;0A35   12 09 89
0A38 1201CE         1315                        LCALL Q01CE                        ;0A38   12 01 CE
0A3B 1208E2         1316                        LCALL Q08E2                        ;0A3B   12 08 E2
0A3E 120847         1317                        LCALL Q0847                        ;0A3E   12 08 47
0A41 12072C         1318                        LCALL Q072C                        ;0A41   12 07 2C
0A44 120895         1319                        LCALL Q0895                        ;0A44   12 08 95
0A47 12092C         1320                        LCALL Q092C                        ;0A47   12 09 2C
0A4A 120501         1321                        LCALL Q0501                        ;0A4A   12 05 01
0A4D 12000E         1322                        LCALL Q000E                        ;0A4D   12 00 0E
0A50 80E3           1323                        SJMP  Q0A35                        ;0A50   80 E3
0A52 C0E0           1324                        PUSH  ACC                          ;0A52   C0 E0
0A54 C0D0           1325                        PUSH  PSW                          ;0A54   C0 D0
0A56 758C3C         1326                        MOV   TH0,#3CH                     ;0A56   75 8C 3C
0A59 758AB0         1327                        MOV   TL0,#0B0H                    ;0A59   75 8A B0
0A5C 0548           1328                        INC   48H                          ;0A5C   05 48
0A5E E548           1329                        MOV   A,48H                        ;0A5E   E5 48
0A60 B41405         1330                        CJNE  A,#14H,Q0A68                 ;0A60   B4 14 05
0A63 754800         1331                        MOV   48H,#00H                     ;0A63   75 48 00
0A66 053D           1332                        INC   3DH                          ;0A66   05 3D
0A68 D0D0           1333     Q0A68:             POP   PSW                          ;0A68   D0 D0
0A6A D0E0           1334                        POP   ACC                          ;0A6A   D0 E0
0A6C 32             1335                        RETI                               ;0A6C   32
                    1336     ;==========================================================================
0A6D 003F0006       1337     Q0A6D:           DB  00H, 3FH, 00H, 06H, 00H, 5BH, 00H, 4FH     ;
0A71 005B004F                
0A75 0066006D       1338     Q0A75:           DB  00H, 66H, 00H, 6DH, 00H, 7DH, 00H, 07H     ;
0A79 007D0007                
0A7D 007F006F       1339     Q0A7D:           DB  00H, 7FH, 00H, 6FH, 00H, 00H       ;
0A81 0000                    
*** WARNING #A41 IN 1339 (08aoyundaojishi.asm, LINE 1339): MISSING 'END' STATEMENT
A51 MACRO ASSEMBLER  08AOYUNDAOJISHI                                                      06/22/2007 17:32:50 PAGE    22

SYMBOL TABLE LISTING
------ ----- -------


N A M E             T Y P E  V A L U E   ATTRIBUTES

ACC. . . . . . . .  D ADDR   00E0H   A   
B. . . . . . . . .  D ADDR   00F0H   A   
DPH. . . . . . . .  D ADDR   0083H   A   
DPL. . . . . . . .  D ADDR   0082H   A   
EA . . . . . . . .  B ADDR   00A8H.7 A   
ET0. . . . . . . .  B ADDR   00A8H.1 A   
OV . . . . . . . .  B ADDR   00D0H.2 A   
P1 . . . . . . . .  D ADDR   0090H   A   
PSW. . . . . . . .  D ADDR   00D0H   A   
Q0000. . . . . . .  C ADDR   0000H   A   
Q0003. . . . . . .  C ADDR   0003H   A   
Q000B. . . . . . .  C ADDR   000BH   A   
Q000E. . . . . . .  C ADDR   000EH   A   
Q0017. . . . . . .  C ADDR   0017H   A   
Q0024. . . . . . .  C ADDR   0024H   A   
Q0031. . . . . . .  C ADDR   0031H   A   
Q003E. . . . . . .  C ADDR   003EH   A   
Q0051. . . . . . .  C ADDR   0051H   A   
Q0056. . . . . . .  C ADDR   0056H   A   
Q005D. . . . . . .  C ADDR   005DH   A   
Q006C. . . . . . .  C ADDR   006CH   A   
Q006E. . . . . . .  C ADDR   006EH   A   
Q0076. . . . . . .  C ADDR   0076H   A   
Q0078. . . . . . .  C ADDR   0078H   A   
Q0083. . . . . . .  C ADDR   0083H   A   
Q0085. . . . . . .  C ADDR   0085H   A   
Q0090. . . . . . .  C ADDR   0090H   A   
Q0092. . . . . . .  C ADDR   0092H   A   
Q00BE. . . . . . .  C ADDR   00BEH   A   
Q00D7. . . . . . .  C ADDR   00D7H   A   
Q00D9. . . . . . .  C ADDR   00D9H   A   
Q00E0. . . . . . .  C ADDR   00E0H   A   
Q00F9. . . . . . .  C ADDR   00F9H   A   
Q00FC. . . . . . .  C ADDR   00FCH   A   
Q0103. . . . . . .  C ADDR   0103H   A   
Q0116. . . . . . .  C ADDR   0116H   A   
Q0123. . . . . . .  C ADDR   0123H   A   
Q0130. . . . . . .  C ADDR   0130H   A   
Q013D. . . . . . .  C ADDR   013DH   A   
Q0140. . . . . . .  C ADDR   0140H   A   
Q0147. . . . . . .  C ADDR   0147H   A   
Q0155. . . . . . .  C ADDR   0155H   A   
Q015A. . . . . . .  C ADDR   015AH   A   
Q016D. . . . . . .  C ADDR   016DH   A   
Q0177. . . . . . .  C ADDR   0177H   A   
Q017A. . . . . . .  C ADDR   017AH   A   
Q0180. . . . . . .  C ADDR   0180H   A   
Q018E. . . . . . .  C ADDR   018EH   A   
Q0193. . . . . . .  C ADDR   0193H   A   
Q01C7. . . . . . .  C ADDR   01C7H   A   
Q01C8. . . . . . .  C ADDR   01C8H   A   
Q01CE. . . . . . .  C ADDR   01CEH   A   
Q0367. . . . . . .  C ADDR   0367H   A   
Q037C. . . . . . .  C ADDR   037CH   A   
Q0389. . . . . . .  C ADDR   0389H   A   
Q0390. . . . . . .  C ADDR   0390H   A   
Q0399. . . . . . .  C ADDR   0399H   A   
Q03A3. . . . . . .  C ADDR   03A3H   A   
Q03B0. . . . . . .  C ADDR   03B0H   A   
Q03BD. . . . . . .  C ADDR   03BDH   A   
A51 MACRO ASSEMBLER  08AOYUNDAOJISHI                                                      06/22/2007 17:32:50 PAGE    23

Q03C1. . . . . . .  C ADDR   03C1H   A   
Q03CE. . . . . . .  C ADDR   03CEH   A   
Q03DB. . . . . . .  C ADDR   03DBH   A   
Q03E8. . . . . . .  C ADDR   03E8H   A   
Q03F5. . . . . . .  C ADDR   03F5H   A   
Q03F9. . . . . . .  C ADDR   03F9H   A   
Q040E. . . . . . .  C ADDR   040EH   A   
Q0414. . . . . . .  C ADDR   0414H   A   
Q041D. . . . . . .  C ADDR   041DH   A   
Q0427. . . . . . .  C ADDR   0427H   A   
Q042D. . . . . . .  C ADDR   042DH   A   
Q0447. . . . . . .  C ADDR   0447H   A   
Q0449. . . . . . .  C ADDR   0449H   A   
Q0452. . . . . . .  C ADDR   0452H   A   
Q045C. . . . . . .  C ADDR   045CH   A   
Q0463. . . . . . .  C ADDR   0463H   A   
Q047B. . . . . . .  C ADDR   047BH   A   
Q0481. . . . . . .  C ADDR   0481H   A   
Q0494. . . . . . .  C ADDR   0494H   A   
Q04A0. . . . . . .  C ADDR   04A0H   A   
Q04A4. . . . . . .  C ADDR   04A4H   A   
Q04C3. . . . . . .  C ADDR   04C3H   A   
Q04D1. . . . . . .  C ADDR   04D1H   A   
Q04D5. . . . . . .  C ADDR   04D5H   A   
Q0500. . . . . . .  C ADDR   0500H   A   
Q0501. . . . . . .  C ADDR   0501H   A   
Q0507. . . . . . .  C ADDR   0507H   A   
Q0513. . . . . . .  C ADDR   0513H   A   
Q0519. . . . . . .  C ADDR   0519H   A   
Q0537. . . . . . .  C ADDR   0537H   A   
Q0546. . . . . . .  C ADDR   0546H   A   
Q056B. . . . . . .  C ADDR   056BH   A   
Q056F. . . . . . .  C ADDR   056FH   A   
Q057F. . . . . . .  C ADDR   0580H   A   
Q05A6. . . . . . .  C ADDR   05A7H   A   
Q05A7. . . . . . .  C ADDR   05A8H   A   
Q05AA. . . . . . .  C ADDR   05ABH   A   
Q05B3. . . . . . .  C ADDR   05B4H   A   
Q05B6. . . . . . .  C ADDR   05B7H   A   
Q05BA. . . . . . .  C ADDR   05BBH   A   
Q05C2. . . . . . .  C ADDR   05C3H   A   
Q05C3. . . . . . .  C ADDR   05C4H   A   
Q05C8. . . . . . .  C ADDR   05C9H   A   
Q05E0. . . . . . .  C ADDR   05E1H   A   
Q05E1. . . . . . .  C ADDR   05E2H   A   
Q05EE. . . . . . .  C ADDR   05EEH   A   
Q05F1. . . . . . .  C ADDR   05F1H   A   
Q0607. . . . . . .  C ADDR   0607H   A   
Q0618. . . . . . .  C ADDR   0618H   A   
Q062D. . . . . . .  C ADDR   062DH   A   
Q0633. . . . . . .  C ADDR   0633H   A   
Q06B3. . . . . . .  C ADDR   06B3H   A   
Q06C0. . . . . . .  C ADDR   06C0H   A   
Q06C9. . . . . . .  C ADDR   06C9H   A   
Q06CD. . . . . . .  C ADDR   06CDH   A   
Q06D8. . . . . . .  C ADDR   06D8H   A   
Q06DC. . . . . . .  C ADDR   06DCH   A   
Q06E9. . . . . . .  C ADDR   06E9H   A   
Q06ED. . . . . . .  C ADDR   06EDH   A   
Q06FC. . . . . . .  C ADDR   06FCH   A   
Q0701. . . . . . .  C ADDR   0701H   A   
Q0715. . . . . . .  C ADDR   0715H   A   
Q072B. . . . . . .  C ADDR   072BH   A   
Q072C. . . . . . .  C ADDR   072CH   A   
Q073B. . . . . . .  C ADDR   073BH   A   
Q0741. . . . . . .  C ADDR   0741H   A   
A51 MACRO ASSEMBLER  08AOYUNDAOJISHI                                                      06/22/2007 17:32:50 PAGE    24

Q075F. . . . . . .  C ADDR   075FH   A   
Q076E. . . . . . .  C ADDR   076EH   A   
Q0793. . . . . . .  C ADDR   0793H   A   
Q0797. . . . . . .  C ADDR   0797H   A   
Q0798. . . . . . .  C ADDR   0798H   A   
Q07A0. . . . . . .  C ADDR   07A0H   A   
Q07A8. . . . . . .  C ADDR   07A8H   A   
Q07B0. . . . . . .  C ADDR   07B0H   A   
Q07B8. . . . . . .  C ADDR   07B8H   A   
Q07C0. . . . . . .  C ADDR   07C0H   A   
Q07C8. . . . . . .  C ADDR   07C8H   A   
Q07D0. . . . . . .  C ADDR   07D0H   A   
Q07D8. . . . . . .  C ADDR   07D8H   A   
Q07E0. . . . . . .  C ADDR   07E0H   A   
Q07E8. . . . . . .  C ADDR   07E8H   A   
Q07F0. . . . . . .  C ADDR   07F0H   A   
Q07F2. . . . . . .  C ADDR   07F2H   A   
Q0800. . . . . . .  C ADDR   0800H   A   
Q0806. . . . . . .  C ADDR   0806H   A   
Q081A. . . . . . .  C ADDR   081AH   A   
Q0821. . . . . . .  C ADDR   0821H   A   
Q0830. . . . . . .  C ADDR   0830H   A   
Q083F. . . . . . .  C ADDR   083FH   A   
Q0841. . . . . . .  C ADDR   0841H   A   
Q0846. . . . . . .  C ADDR   0846H   A   
Q0847. . . . . . .  C ADDR   0847H   A   
Q0850. . . . . . .  C ADDR   0850H   A   
Q0856. . . . . . .  C ADDR   0856H   A   
Q0868. . . . . . .  C ADDR   0868H   A   
Q0877. . . . . . .  C ADDR   0877H   A   
Q0890. . . . . . .  C ADDR   0890H   A   
Q0894. . . . . . .  C ADDR   0894H   A   
Q0895. . . . . . .  C ADDR   0895H   A   
Q08A0. . . . . . .  C ADDR   08A0H   A   
Q08A9. . . . . . .  C ADDR   08A9H   A   
Q08AF. . . . . . .  C ADDR   08AFH   A   
Q08BE. . . . . . .  C ADDR   08BEH   A   
Q08CD. . . . . . .  C ADDR   08CDH   A   
Q08DD. . . . . . .  C ADDR   08DDH   A   
Q08E1. . . . . . .  C ADDR   08E1H   A   
Q08E2. . . . . . .  C ADDR   08E2H   A   
Q08ED. . . . . . .  C ADDR   08EDH   A   
Q08F3. . . . . . .  C ADDR   08F3H   A   
Q0905. . . . . . .  C ADDR   0905H   A   
Q0914. . . . . . .  C ADDR   0914H   A   
Q0927. . . . . . .  C ADDR   0927H   A   
Q092B. . . . . . .  C ADDR   092BH   A   
Q092C. . . . . . .  C ADDR   092CH   A   
Q0935. . . . . . .  C ADDR   0935H   A   
Q093B. . . . . . .  C ADDR   093BH   A   
Q094A. . . . . . .  C ADDR   094AH   A   
Q0959. . . . . . .  C ADDR   0959H   A   
Q096F. . . . . . .  C ADDR   096FH   A   
Q0973. . . . . . .  C ADDR   0973H   A   
Q0974. . . . . . .  C ADDR   0974H   A   
Q097A. . . . . . .  C ADDR   097AH   A   
Q0989. . . . . . .  C ADDR   0989H   A   
Q09B0. . . . . . .  C ADDR   09B0H   A   
Q09B3. . . . . . .  C ADDR   09B3H   A   
Q09B6. . . . . . .  C ADDR   09B6H   A   
Q09B7. . . . . . .  C ADDR   09B7H   A   
Q09CE. . . . . . .  C ADDR   09CEH   A   
Q09EC. . . . . . .  C ADDR   09ECH   A   
Q09EF. . . . . . .  C ADDR   09EFH   A   
Q09F2. . . . . . .  C ADDR   09F2H   A   
Q0A00. . . . . . .  C ADDR   0A00H   A   
A51 MACRO ASSEMBLER  08AOYUNDAOJISHI                                                      06/22/2007 17:32:50 PAGE    25

Q0A03. . . . . . .  C ADDR   0A03H   A   
Q0A08. . . . . . .  C ADDR   0A08H   A   
Q0A15. . . . . . .  C ADDR   0A15H   A   
Q0A1A. . . . . . .  C ADDR   0A1AH   A   
Q0A25. . . . . . .  C ADDR   0A25H   A   
Q0A26. . . . . . .  C ADDR   0A26H   A   
Q0A35. . . . . . .  C ADDR   0A35H   A   
Q0A68. . . . . . .  C ADDR   0A68H   A   
Q0A6D. . . . . . .  C ADDR   0A6DH   A   
Q0A75. . . . . . .  C ADDR   0A75H   A   
Q0A7D. . . . . . .  C ADDR   0A7DH   A   
SP . . . . . . . .  D ADDR   0081H   A   
TH0. . . . . . . .  D ADDR   008CH   A   
TL0. . . . . . . .  D ADDR   008AH   A   
TMOD . . . . . . .  D ADDR   0089H   A   
TR0. . . . . . . .  B ADDR   0088H.4 A   


REGISTER BANK(S) USED: 0 


ASSEMBLY COMPLETE.  1 WARNING(S), 0 ERROR(S)
