Microsoft (R) Macro Assembler Version 5.00                  6/22/7                                                             Page     1-1



08AOYU~1.asm(1340): warning A4085: End of file, no END directive
Microsoft (R) Macro Assembler Version 5.00                  6/22/7                                                             Page     1-1


       1				  
       2				;标号==============指令================
					================地址===机器码======= 
       3				;======================================
					==================================== 
       4 0000				Q0000:             LJMP  Q05A7         
					               ;0000   02 05 A7 
08AOYU~1.asm(4): error A2062: Missing or unreachable CS
       5				;======================================
					==================================== 
       6 0000  00 00 00 00 00 00 00	Q0003:		 DB  00H, DBH, 00H, 00H
					, 00H, 00H, 00H, 00H	;........ 
08AOYU~1.asm(6): error A2062: Missing or unreachable CS
       7       00			
08AOYU~1.asm(6): error A2086: Data emitted with no segment
       8 0008  02 00 52			Q000B:		 DB  02H, DBH, 52H
						;..R 
08AOYU~1.asm(7): error A2062: Missing or unreachable CS
       9				;======================================
					==================================== 
      10 000B				Q000E:             MOV   A,3MOV        
					               ;000E   E5 3D 
08AOYU~1.asm(9): error A2062: Missing or unreachable CS
      11				                   XRL   A,#0AH        
					               ;0010   64 0A 
08AOYU~1.asm(10): error A2105: Expected: instruction or directive
      12 000B  74 00			                   JZ    Q00JZ         
					               ;0012   60 03 
08AOYU~1.asm(11): error A2009: Symbol not defined: Q00JZ
      13				                   LJMP  Q01C7         
					               ;0014   02 01 C7 
08AOYU~1.asm(12): error A2105: Expected: instruction or directive
      14				;======================================
					==================================== 
      15				Q0017:             MOV   3DHMOV        
					               ;0017   F5 3D 
08AOYU~1.asm(14): error A2062: Missing or unreachable CS
      16 000D  FF 06 003A U		                   INC   3AHINC        
					               ;0019   05 3A 
08AOYU~1.asm(15): error A2009: Symbol not defined: INC
      17				                   MOV   A,3MOV        
					               ;001B   E5 3A 
08AOYU~1.asm(16): error A2009: Symbol not defined: A
      18				                   XRL   A,#06H        
					               ;001D   64 06 
08AOYU~1.asm(17): error A2105: Expected: instruction or directive
      19 0011  74 00			                   JZ    Q00JZ         
					               ;001F   60 03 
08AOYU~1.asm(18): error A2009: Symbol not defined: Q00JZ
      20				                   LJMP  Q01C7         
					               ;0021   02 01 C7 
08AOYU~1.asm(19): error A2105: Expected: instruction or directive
      21				;======================================
					==================================== 
Microsoft (R) Macro Assembler Version 5.00                  6/22/7                                                             Page     1-2


      22				Q0024:             MOV   3AHMOV        
					               ;0024   F5 3A 
08AOYU~1.asm(21): error A2062: Missing or unreachable CS
      23 0013  FF 06 0049 U		                   INC   49HINC        
					               ;0026   05 49 
08AOYU~1.asm(22): error A2009: Symbol not defined: INC
      24				                   MOV   A,4MOV        
					               ;0028   E5 49 
08AOYU~1.asm(23): error A2009: Symbol not defined: A
      25				                   XRL   A,#0AH        
					               ;002A   64 0A 
08AOYU~1.asm(24): error A2105: Expected: instruction or directive
      26 0017  74 00			                   JZ    Q00JZ         
					               ;002C   60 03 
08AOYU~1.asm(25): error A2009: Symbol not defined: Q00JZ
      27				                   LJMP  Q01C7         
					               ;002E   02 01 C7 
08AOYU~1.asm(26): error A2105: Expected: instruction or directive
      28				;======================================
					==================================== 
      29				Q0031:             MOV   49HMOV        
					               ;0031   F5 49 
08AOYU~1.asm(28): error A2062: Missing or unreachable CS
      30 0019  FF 06 0044 U		                   INC   44HINC        
					               ;0033   05 44 
08AOYU~1.asm(29): error A2009: Symbol not defined: INC
      31				                   MOV   A,4MOV        
					               ;0035   E5 44 
08AOYU~1.asm(30): error A2009: Symbol not defined: A
      32				                   XRL   A,#06H        
					               ;0037   64 06 
08AOYU~1.asm(31): error A2105: Expected: instruction or directive
      33 001D  74 00			                   JZ    Q00JZ         
					               ;0039   60 03 
08AOYU~1.asm(32): error A2009: Symbol not defined: Q00JZ
      34				                   LJMP  Q01C7         
					               ;003B   02 01 C7 
08AOYU~1.asm(33): error A2105: Expected: instruction or directive
      35				;======================================
					==================================== 
      36				Q003E:             MOV   44HMOV        
					               ;003E   F5 44 
08AOYU~1.asm(35): error A2062: Missing or unreachable CS
      37 001F  FF 0E 0052 U		                   DEC   52HDEC        
					               ;0040   15 52 
08AOYU~1.asm(36): error A2009: Symbol not defined: DEC
      38				                   MOV   A,5MOV        
					               ;0042   E5 52 
08AOYU~1.asm(37): error A2009: Symbol not defined: A
      39 0023  74 00			                   JZ    Q00JZ         
					               ;0044   60 10 
08AOYU~1.asm(38): error A2009: Symbol not defined: Q00JZ
      40 0025  FF 06 0050 U		                   INC   50HINC        
					               ;0046   05 50 
08AOYU~1.asm(39): error A2009: Symbol not defined: INC
Microsoft (R) Macro Assembler Version 5.00                  6/22/7                                                             Page     1-3


      41				                   MOV   A,5MOV        
					               ;0048   E5 50 
08AOYU~1.asm(40): error A2009: Symbol not defined: A
      42				                   XRL   A,#0AH        
					               ;004A   64 0A 
08AOYU~1.asm(41): error A2105: Expected: instruction or directive
      43 0029  74 00			                   JZ    Q00JZ         
					               ;004C   60 03 
08AOYU~1.asm(42): error A2009: Symbol not defined: Q00JZ
      44				                   LJMP  Q01C7         
					               ;004E   02 01 C7 
08AOYU~1.asm(43): error A2105: Expected: instruction or directive
      45				;======================================
					==================================== 
      46				Q0051:             MOV   50HMOV        
					               ;0051   F5 50 
08AOYU~1.asm(45): error A2062: Missing or unreachable CS
      47 002B  FF 06 004A U		                   INC   4AHINC        
					               ;0053   05 4A 
08AOYU~1.asm(46): error A2009: Symbol not defined: INC
      48 002F  C3			                   RET      RET        
					               ;0055   22 
08AOYU~1.asm(47): error A2009: Symbol not defined: RET
      49				;======================================
					==================================== 
      50				Q0056:             MOV   A,5MOV        
					               ;0056   E5 52 
08AOYU~1.asm(49): error A2062: Missing or unreachable CS
      51 0030  74 00			                   JZ    Q00JZ         
					               ;0058   60 03 
08AOYU~1.asm(50): error A2009: Symbol not defined: Q00JZ
      52				                   LJMP  Q01C7         
					               ;005A   02 01 C7 
08AOYU~1.asm(51): error A2105: Expected: instruction or directive
      53				;======================================
					==================================== 
      54 0032  C7 06 0052 U 0096	Q005D:             MOV   52HMOV8H      
					               ;005D   75 52 18 
08AOYU~1.asm(53): error A2062: Missing or unreachable CS
      55				                   MOV   50HMOV        
					               ;0060   F5 50 
08AOYU~1.asm(54): error A2009: Symbol not defined: MOV
      56				                   MOV   4AHMOV        
					               ;0062   F5 4A 
08AOYU~1.asm(55): error A2009: Symbol not defined: MOV
      57				                   MOV   A,3MOV        
					               ;0064   E5 37 
08AOYU~1.asm(56): error A2009: Symbol not defined: A
      58 0038  75 00			                   JNZ   Q00JNZ        
					               ;0066   70 04 
08AOYU~1.asm(57): error A2009: Symbol not defined: Q00JNZ
      59				                   MOV   R7,MOVH       
					               ;0068   7F 01 
08AOYU~1.asm(58): error A2009: Symbol not defined: R7
Microsoft (R) Macro Assembler Version 5.00                  6/22/7                                                             Page     1-4


      60				                   SJMP  Q006E         
					               ;006A   80 02 
08AOYU~1.asm(59): error A2105: Expected: instruction or directive
      61				Q006C:             MOV   R7,MOVH       
					               ;006C   7F 00 
08AOYU~1.asm(60): error A2062: Missing or unreachable CS
      62				Q006E:             MOV   A,3MOV        
					               ;006E   E5 32 
08AOYU~1.asm(61): error A2062: Missing or unreachable CS
      63 003A  75 00			                   JNZ   Q00JNZ        
					               ;0070   70 04 
08AOYU~1.asm(62): error A2009: Symbol not defined: Q00JNZ
      64				                   MOV   R6,MOVH       
					               ;0072   7E 01 
08AOYU~1.asm(63): error A2009: Symbol not defined: R6
      65				                   SJMP  Q0078         
					               ;0074   80 02 
08AOYU~1.asm(64): error A2105: Expected: instruction or directive
      66				Q0076:             MOV   R6,MOVH       
					               ;0076   7E 00 
08AOYU~1.asm(65): error A2062: Missing or unreachable CS
      67				Q0078:             MOV   A,RMOV        
					               ;0078   EE 
08AOYU~1.asm(66): error A2062: Missing or unreachable CS
      68				                   ANL   A,R7          
					               ;0079   5F 
08AOYU~1.asm(67): error A2105: Expected: instruction or directive
      69				                   MOV   R7,MOV        
					               ;007A   FF 
08AOYU~1.asm(68): error A2009: Symbol not defined: R7
      70				                   MOV   A,4MOV        
					               ;007B   E5 40 
08AOYU~1.asm(69): error A2009: Symbol not defined: A
      71 003C  75 00			                   JNZ   Q00JNZ        
					               ;007D   70 04 
08AOYU~1.asm(70): error A2009: Symbol not defined: Q00JNZ
      72				                   MOV   R6,MOVH       
					               ;007F   7E 01 
08AOYU~1.asm(71): error A2009: Symbol not defined: R6
      73				                   SJMP  Q0085         
					               ;0081   80 02 
08AOYU~1.asm(72): error A2105: Expected: instruction or directive
      74				Q0083:             MOV   R6,MOVH       
					               ;0083   7E 00 
08AOYU~1.asm(73): error A2062: Missing or unreachable CS
      75				Q0085:             MOV   A,RMOV        
					               ;0085   EE 
08AOYU~1.asm(74): error A2062: Missing or unreachable CS
      76				                   ANL   A,R7          
					               ;0086   5F 
08AOYU~1.asm(75): error A2105: Expected: instruction or directive
      77				                   MOV   R7,MOV        
					               ;0087   FF 
08AOYU~1.asm(76): error A2009: Symbol not defined: R7
Microsoft (R) Macro Assembler Version 5.00                  6/22/7                                                             Page     1-5


      78				                   MOV   A,3MOV        
					               ;0088   E5 3E 
08AOYU~1.asm(77): error A2009: Symbol not defined: A
      79 003E  75 00			                   JNZ   Q00JNZ        
					               ;008A   70 04 
08AOYU~1.asm(78): error A2009: Symbol not defined: Q00JNZ
      80				                   MOV   R6,MOVH       
					               ;008C   7E 01 
08AOYU~1.asm(79): error A2009: Symbol not defined: R6
      81				                   SJMP  Q0092         
					               ;008E   80 02 
08AOYU~1.asm(80): error A2105: Expected: instruction or directive
      82				Q0090:             MOV   R6,MOVH       
					               ;0090   7E 00 
08AOYU~1.asm(81): error A2062: Missing or unreachable CS
      83				Q0092:             MOV   A,RMOV        
					               ;0092   EE 
08AOYU~1.asm(82): error A2062: Missing or unreachable CS
      84				                   ANL   A,R7          
					               ;0093   5F 
08AOYU~1.asm(83): error A2105: Expected: instruction or directive
      85 0040  75 00			                   JNZ   Q00JNZ        
					               ;0094   70 28 
08AOYU~1.asm(84): error A2009: Symbol not defined: Q00JNZ
      86 0042  FF 0E 0032 U		                   DEC   32HDEC        
					               ;0096   15 32 
08AOYU~1.asm(85): error A2009: Symbol not defined: DEC
      87				                   MOV   A,3MOV        
					               ;0098   E5 32 
08AOYU~1.asm(86): error A2009: Symbol not defined: A
      88				                   CJNE  A,#0AH,Q00BE  
					               ;009A   B4 0A 21 
08AOYU~1.asm(87): error A2105: Expected: instruction or directive
      89				                   CLR   A             
					               ;009D   E4 
08AOYU~1.asm(88): error A2105: Expected: instruction or directive
      90				                   MOV   32HMOV        
					               ;009E   F5 32 
08AOYU~1.asm(89): error A2009: Symbol not defined: MOV
      91 0046  FF 0E 0037 U		                   DEC   37HDEC        
					               ;00A0   15 37 
08AOYU~1.asm(90): error A2009: Symbol not defined: DEC
      92				                   MOV   A,3MOV        
					               ;00A2   E5 37 
08AOYU~1.asm(91): error A2009: Symbol not defined: A
      93				                   CJNE  A,#0AH,Q00BE  
					               ;00A4   B4 0A 17 
08AOYU~1.asm(92): error A2105: Expected: instruction or directive
      94				                   CLR   A             
					               ;00A7   E4 
08AOYU~1.asm(93): error A2105: Expected: instruction or directive
      95				                   MOV   37HMOV        
					               ;00A8   F5 37 
08AOYU~1.asm(94): error A2009: Symbol not defined: MOV
Microsoft (R) Macro Assembler Version 5.00                  6/22/7                                                             Page     1-6


      96 004A  FF 0E 0040 U		                   DEC   40HDEC        
					               ;00AA   15 40 
08AOYU~1.asm(95): error A2009: Symbol not defined: DEC
      97				                   MOV   A,4MOV        
					               ;00AC   E5 40 
08AOYU~1.asm(96): error A2009: Symbol not defined: A
      98				                   CJNE  A,#0AH,Q00BE  
					               ;00AE   B4 0A 0D 
08AOYU~1.asm(97): error A2105: Expected: instruction or directive
      99				                   CLR   A             
					               ;00B1   E4 
08AOYU~1.asm(98): error A2105: Expected: instruction or directive
     100				                   MOV   40HMOV        
					               ;00B2   F5 40 
08AOYU~1.asm(99): error A2009: Symbol not defined: MOV
     101 004E  FF 0E 003E U		                   DEC   3EHDEC        
					               ;00B4   15 3E 
08AOYU~1.asm(100): error A2009: Symbol not defined: DEC
     102				                   MOV   A,3MOV        
					               ;00B6   E5 3E 
08AOYU~1.asm(101): error A2009: Symbol not defined: A
     103				                   CJNE  A,#0AH,Q00BE  
					               ;00B8   B4 0A 03 
08AOYU~1.asm(102): error A2105: Expected: instruction or directive
     104				                   CLR   A             
					               ;00BB   E4 
08AOYU~1.asm(103): error A2105: Expected: instruction or directive
     105				                   MOV   3EHMOV        
					               ;00BC   F5 3E 
08AOYU~1.asm(104): error A2009: Symbol not defined: MOV
     106				Q00BE:             MOV   A,3MOV        
					               ;00BE   E5 39 
08AOYU~1.asm(105): error A2062: Missing or unreachable CS
     107				                   ORL   A,#0FEH       
					               ;00C0   44 FE 
08AOYU~1.asm(106): error A2105: Expected: instruction or directive
     108				                   MOV   R7,MOV        
					               ;00C2   FF 
08AOYU~1.asm(107): error A2009: Symbol not defined: R7
     109				                   CPL   A             
					               ;00C3   F4 
08AOYU~1.asm(108): error A2105: Expected: instruction or directive
     110 0052  75 00			                   JNZ   Q01JNZ        
					               ;00C4   70 7A 
08AOYU~1.asm(109): error A2009: Symbol not defined: Q01JNZ
     111 0054  FF 0E 0042 U		                   DEC   42HDEC        
					               ;00C6   15 42 
08AOYU~1.asm(110): error A2009: Symbol not defined: DEC
     112				                   MOV   A,4MOV        
					               ;00C8   E5 42 
08AOYU~1.asm(111): error A2009: Symbol not defined: A
     113 0058  74 00			                   JZ    Q00JZ         
					               ;00CA   60 0D 
08AOYU~1.asm(112): error A2009: Symbol not defined: Q00JZ
Microsoft (R) Macro Assembler Version 5.00                  6/22/7                                                             Page     1-7


     114 005A  FF 06 0046 U		                   INC   46HINC        
					               ;00CC   05 46 
08AOYU~1.asm(113): error A2009: Symbol not defined: INC
     115				                   MOV   A,4MOV        
					               ;00CE   E5 46 
08AOYU~1.asm(114): error A2009: Symbol not defined: A
     116				                   XRL   A,#0AH        
					               ;00D0   64 0A 
08AOYU~1.asm(115): error A2105: Expected: instruction or directive
     117 005E  74 00			                   JZ    Q00JZ         
					               ;00D2   60 03 
08AOYU~1.asm(116): error A2009: Symbol not defined: Q00JZ
     118				                   LJMP  Q01C7         
					               ;00D4   02 01 C7 
08AOYU~1.asm(117): error A2105: Expected: instruction or directive
     119				;======================================
					==================================== 
     120				Q00D7:             SJMP  Q0155         
					               ;00D7   80 7C 
08AOYU~1.asm(119): error A2062: Missing or unreachable CS
     121				Q00D9:             MOV   A,4MOV        
					               ;00D9   E5 42 
08AOYU~1.asm(120): error A2062: Missing or unreachable CS
     122 0060  74 00			                   JZ    Q00JZ         
					               ;00DB   60 03 
08AOYU~1.asm(121): error A2009: Symbol not defined: Q00JZ
     123				                   LJMP  Q01C7         
					               ;00DD   02 01 C7 
08AOYU~1.asm(122): error A2105: Expected: instruction or directive
     124				;======================================
					==================================== 
     125 0062  C7 06 0042 U 0167	Q00E0:             MOV   42HMOVFH      
					               ;00E0   75 42 1F 
08AOYU~1.asm(124): error A2062: Missing or unreachable CS
     126 0068  C7 06 0046 U 014F	                   MOV   46HMOV1H      
					               ;00E3   75 46 01 
08AOYU~1.asm(125): error A2009: Symbol not defined: MOV1H
     127				                   MOV   53HMOV        
					               ;00E6   F5 53 
08AOYU~1.asm(126): error A2009: Symbol not defined: MOV
     128 006E  FF 0E 0041 U		                   DEC   41HDEC        
					               ;00E8   15 41 
08AOYU~1.asm(127): error A2009: Symbol not defined: DEC
     129				                   MOV   A,4MOV        
					               ;00EA   E5 41 
08AOYU~1.asm(128): error A2009: Symbol not defined: A
     130 0072  74 00			                   JZ    Q00JZ         
					               ;00EC   60 0E 
08AOYU~1.asm(129): error A2009: Symbol not defined: Q00JZ
     131 0074  FF 06 0039 U		                   INC   39HINC        
					               ;00EE   05 39 
08AOYU~1.asm(130): error A2009: Symbol not defined: INC
     132				                   MOV   A,3MOV        
Microsoft (R) Macro Assembler Version 5.00                  6/22/7                                                             Page     1-8


					               ;00F0   E5 39 
08AOYU~1.asm(131): error A2009: Symbol not defined: A
     133				                   XRL   A,#0AH        
					               ;00F2   64 0A 
08AOYU~1.asm(132): error A2105: Expected: instruction or directive
     134 0078  74 00			                   JZ    Q00JZ         
					               ;00F4   60 03 
08AOYU~1.asm(133): error A2009: Symbol not defined: Q00JZ
     135				                   LJMP  Q01C7         
					               ;00F6   02 01 C7 
08AOYU~1.asm(134): error A2105: Expected: instruction or directive
     136				;======================================
					==================================== 
     137				Q00F9:             LJMP  Q018E         
					               ;00F9   02 01 8E 
08AOYU~1.asm(136): error A2062: Missing or unreachable CS
     138				;======================================
					==================================== 
     139				Q00FC:             MOV   A,4MOV        
					               ;00FC   E5 41 
08AOYU~1.asm(138): error A2062: Missing or unreachable CS
     140 007A  74 00			                   JZ    Q01JZ         
					               ;00FE   60 03 
08AOYU~1.asm(139): error A2009: Symbol not defined: Q01JZ
     141				                   LJMP  Q01C7         
					               ;0100   02 01 C7 
08AOYU~1.asm(140): error A2105: Expected: instruction or directive
     142				;======================================
					==================================== 
     143 007C  C7 06 0041 U 00EE	Q0103:             MOV   41HMOVCH      
					               ;0103   75 41 0C 
08AOYU~1.asm(142): error A2062: Missing or unreachable CS
     144 0082  C7 06 0039 U 00DD	                   MOV   39HMOV1H      
					               ;0106   75 39 01 
08AOYU~1.asm(143): error A2009: Symbol not defined: MOV1H
     145				                   MOV   47HMOV        
					               ;0109   F5 47 
08AOYU~1.asm(144): error A2009: Symbol not defined: MOV
     146 0088  FF 06 003F U		                   INC   3FHINC        
					               ;010B   05 3F 
08AOYU~1.asm(145): error A2009: Symbol not defined: INC
     147				                   MOV   A,3MOV        
					               ;010D   E5 3F 
08AOYU~1.asm(146): error A2009: Symbol not defined: A
     148				                   XRL   A,#0AH        
					               ;010F   64 0A 
08AOYU~1.asm(147): error A2105: Expected: instruction or directive
     149 008C  74 00			                   JZ    Q01JZ         
					               ;0111   60 03 
08AOYU~1.asm(148): error A2009: Symbol not defined: Q01JZ
     150				                   LJMP  Q01C7         
					               ;0113   02 01 C7 
08AOYU~1.asm(149): error A2105: Expected: instruction or directive
     151				;======================================
Microsoft (R) Macro Assembler Version 5.00                  6/22/7                                                             Page     1-9


					==================================== 
     152				Q0116:             MOV   3FHMOV        
					               ;0116   F5 3F 
08AOYU~1.asm(151): error A2062: Missing or unreachable CS
     153 008E  FF 06 004B U		                   INC   4BHINC        
					               ;0118   05 4B 
08AOYU~1.asm(152): error A2009: Symbol not defined: INC
     154				                   MOV   A,4MOV        
					               ;011A   E5 4B 
08AOYU~1.asm(153): error A2009: Symbol not defined: A
     155				                   XRL   A,#0AH        
					               ;011C   64 0A 
08AOYU~1.asm(154): error A2105: Expected: instruction or directive
     156 0092  74 00			                   JZ    Q01JZ         
					               ;011E   60 03 
08AOYU~1.asm(155): error A2009: Symbol not defined: Q01JZ
     157				                   LJMP  Q01C7         
					               ;0120   02 01 C7 
08AOYU~1.asm(156): error A2105: Expected: instruction or directive
     158				;======================================
					==================================== 
     159				Q0123:             MOV   4BHMOV        
					               ;0123   F5 4B 
08AOYU~1.asm(158): error A2062: Missing or unreachable CS
     160 0094  FF 06 0023 U		                   INC   23HINC        
					               ;0125   05 23 
08AOYU~1.asm(159): error A2009: Symbol not defined: INC
     161				                   MOV   A,2MOV        
					               ;0127   E5 23 
08AOYU~1.asm(160): error A2009: Symbol not defined: A
     162				                   XRL   A,#0AH        
					               ;0129   64 0A 
08AOYU~1.asm(161): error A2105: Expected: instruction or directive
     163 0098  74 00			                   JZ    Q01JZ         
					               ;012B   60 03 
08AOYU~1.asm(162): error A2009: Symbol not defined: Q01JZ
     164				                   LJMP  Q01C7         
					               ;012D   02 01 C7 
08AOYU~1.asm(163): error A2105: Expected: instruction or directive
     165				;======================================
					==================================== 
     166				Q0130:             MOV   23HMOV        
					               ;0130   F5 23 
08AOYU~1.asm(165): error A2062: Missing or unreachable CS
     167 009A  FF 06 0022 U		                   INC   22HINC        
					               ;0132   05 22 
08AOYU~1.asm(166): error A2009: Symbol not defined: INC
     168				                   MOV   A,2MOV        
					               ;0134   E5 22 
08AOYU~1.asm(167): error A2009: Symbol not defined: A
     169				                   XRL   A,#0AH        
					               ;0136   64 0A 
08AOYU~1.asm(168): error A2105: Expected: instruction or directive
     170 009E  74 00			                   JZ    Q01JZ         
Microsoft (R) Macro Assembler Version 5.00                  6/22/7                                                             Page     1-10


					               ;0138   60 03 
08AOYU~1.asm(169): error A2009: Symbol not defined: Q01JZ
     171				                   LJMP  Q01C7         
					               ;013A   02 01 C7 
08AOYU~1.asm(170): error A2105: Expected: instruction or directive
     172				;======================================
					==================================== 
     173				Q013D:             MOV   22HMOV        
					               ;013D   F5 22 
08AOYU~1.asm(172): error A2062: Missing or unreachable CS
     174 00A0  C3			                   RET      RET        
					               ;013F   22 
08AOYU~1.asm(173): error A2009: Symbol not defined: RET
     175				;======================================
					==================================== 
     176				Q0140:             MOV   A,RMOV        
					               ;0140   EF 
08AOYU~1.asm(175): error A2062: Missing or unreachable CS
     177				                   CPL   A             
					               ;0141   F4 
08AOYU~1.asm(176): error A2105: Expected: instruction or directive
     178 00A1  75 00			                   JNZ   Q01JNZ        
					               ;0142   70 03 
08AOYU~1.asm(177): error A2009: Symbol not defined: Q01JNZ
     179				                   LJMP  Q01C7         
					               ;0144   02 01 C7 
08AOYU~1.asm(178): error A2105: Expected: instruction or directive
     180				;======================================
					==================================== 
     181 00A3  FF 0E 0045 U		Q0147:             DEC   45HDEC        
					               ;0147   15 45 
08AOYU~1.asm(180): error A2062: Missing or unreachable CS
     182				                   MOV   A,4MOV        
					               ;0149   E5 45 
08AOYU~1.asm(181): error A2009: Symbol not defined: A
     183 00A7  74 00			                   JZ    Q01JZ         
					               ;014B   60 0D 
08AOYU~1.asm(182): error A2009: Symbol not defined: Q01JZ
     184 00A9  FF 06 0046 U		                   INC   46HINC        
					               ;014D   05 46 
08AOYU~1.asm(183): error A2009: Symbol not defined: INC
     185				                   MOV   A,4MOV        
					               ;014F   E5 46 
08AOYU~1.asm(184): error A2009: Symbol not defined: A
     186				                   XRL   A,#0AH        
					               ;0151   64 0A 
08AOYU~1.asm(185): error A2105: Expected: instruction or directive
     187 00AD  75 00			                   JNZ   Q01JNZ        
					               ;0153   70 72 
08AOYU~1.asm(186): error A2009: Symbol not defined: Q01JNZ
     188				Q0155:             MOV   46HMOV        
					               ;0155   F5 46 
08AOYU~1.asm(187): error A2062: Missing or unreachable CS
     189 00AF  FF 06 0053 U		                   INC   53HINC        
Microsoft (R) Macro Assembler Version 5.00                  6/22/7                                                             Page     1-11


					               ;0157   05 53 
08AOYU~1.asm(188): error A2009: Symbol not defined: INC
     190 00B3  C3			                   RET      RET        
					               ;0159   22 
08AOYU~1.asm(189): error A2009: Symbol not defined: RET
     191				;======================================
					==================================== 
     192				Q015A:             MOV   A,4MOV        
					               ;015A   E5 45 
08AOYU~1.asm(191): error A2062: Missing or unreachable CS
     193 00B4  75 00			                   JNZ   Q01JNZ        
					               ;015C   70 69 
08AOYU~1.asm(192): error A2009: Symbol not defined: Q01JNZ
     194				                   MOV   A,3MOV        
					               ;015E   E5 39 
08AOYU~1.asm(193): error A2009: Symbol not defined: A
     195				                   CJNE  A,#02H,Q0177  
					               ;0160   B4 02 14 
08AOYU~1.asm(194): error A2105: Expected: instruction or directive
     196				                   MOV   A,3MOV        
					               ;0163   E5 3B 
08AOYU~1.asm(195): error A2009: Symbol not defined: A
     197				                   CJNE  A,#1CH,Q016D  
					               ;0165   B4 1C 05 
08AOYU~1.asm(196): error A2105: Expected: instruction or directive
     198 00B6  C7 06 0045 U 013D	                   MOV   45HMOVCH      
					               ;0168   75 45 1C 
08AOYU~1.asm(197): error A2009: Symbol not defined: MOVCH
     199				                   SJMP  Q017A         
					               ;016B   80 0D 
08AOYU~1.asm(198): error A2105: Expected: instruction or directive
     200				Q016D:             MOV   A,3MOV        
					               ;016D   E5 3B 
08AOYU~1.asm(199): error A2062: Missing or unreachable CS
     201				                   CJNE  A,#1DH,Q0180  
					               ;016F   B4 1D 0E 
08AOYU~1.asm(200): error A2105: Expected: instruction or directive
     202 00BC  C7 06 0045 U 0125	                   MOV   45HMOVDH      
					               ;0172   75 45 1D 
08AOYU~1.asm(201): error A2009: Symbol not defined: MOVDH
     203				                   SJMP  Q017A         
					               ;0175   80 03 
08AOYU~1.asm(202): error A2105: Expected: instruction or directive
     204 00C2  C7 06 0042 U 0145	Q0177:             MOV   42HMOVEH      
					               ;0177   75 42 1E 
08AOYU~1.asm(203): error A2062: Missing or unreachable CS
     205 00C8  C7 06 0046 U 0135	Q017A:             MOV   46HMOV1H      
					               ;017A   75 46 01 
08AOYU~1.asm(204): error A2062: Missing or unreachable CS
     206				                   CLR   A             
					               ;017D   E4 
08AOYU~1.asm(205): error A2105: Expected: instruction or directive
     207				                   MOV   53HMOV        
					               ;017E   F5 53 
08AOYU~1.asm(206): error A2009: Symbol not defined: MOV
Microsoft (R) Macro Assembler Version 5.00                  6/22/7                                                             Page     1-12


     208 00CE  FF 0E 0041 U		Q0180:             DEC   41HDEC        
					               ;0180   15 41 
08AOYU~1.asm(207): error A2062: Missing or unreachable CS
     209				                   MOV   A,4MOV        
					               ;0182   E5 41 
08AOYU~1.asm(208): error A2009: Symbol not defined: A
     210 00D2  74 00			                   JZ    Q01JZ         
					               ;0184   60 0D 
08AOYU~1.asm(209): error A2009: Symbol not defined: Q01JZ
     211 00D4  FF 06 0039 U		                   INC   39HINC        
					               ;0186   05 39 
08AOYU~1.asm(210): error A2009: Symbol not defined: INC
     212				                   MOV   A,3MOV        
					               ;0188   E5 39 
08AOYU~1.asm(211): error A2009: Symbol not defined: A
     213				                   XRL   A,#0AH        
					               ;018A   64 0A 
08AOYU~1.asm(212): error A2105: Expected: instruction or directive
     214 00D8  75 00			                   JNZ   Q01JNZ        
					               ;018C   70 39 
08AOYU~1.asm(213): error A2009: Symbol not defined: Q01JNZ
     215				Q018E:             MOV   39HMOV        
					               ;018E   F5 39 
08AOYU~1.asm(214): error A2062: Missing or unreachable CS
     216 00DA  FF 06 0047 U		                   INC   47HINC        
					               ;0190   05 47 
08AOYU~1.asm(215): error A2009: Symbol not defined: INC
     217 00DE  C3			                   RET      RET        
					               ;0192   22 
08AOYU~1.asm(216): error A2009: Symbol not defined: RET
     218				;======================================
					==================================== 
     219				Q0193:             MOV   A,4MOV        
					               ;0193   E5 41 
08AOYU~1.asm(218): error A2062: Missing or unreachable CS
     220 00DF  75 00			                   JNZ   Q01JNZ        
					               ;0195   70 30 
08AOYU~1.asm(219): error A2009: Symbol not defined: Q01JNZ
     221 00E1  C7 06 0041 U 014C	                   MOV   41HMOVCH      
					               ;0197   75 41 0C 
08AOYU~1.asm(220): error A2009: Symbol not defined: MOVCH
     222 00E7  C7 06 0039 U 0142	                   MOV   39HMOV1H      
					               ;019A   75 39 01 
08AOYU~1.asm(221): error A2009: Symbol not defined: MOV1H
     223				                   MOV   47HMOV        
					               ;019D   F5 47 
08AOYU~1.asm(222): error A2009: Symbol not defined: MOV
     224 00ED  FF 06 003F U		                   INC   3FHINC        
					               ;019F   05 3F 
08AOYU~1.asm(223): error A2009: Symbol not defined: INC
     225				                   MOV   A,3MOV        
					               ;01A1   E5 3F 
08AOYU~1.asm(224): error A2009: Symbol not defined: A
Microsoft (R) Macro Assembler Version 5.00                  6/22/7                                                             Page     1-13


     226				                   CJNE  A,#0AH,Q01C7  
					               ;01A3   B4 0A 21 
08AOYU~1.asm(225): error A2105: Expected: instruction or directive
     227				                   CLR   A             
					               ;01A6   E4 
08AOYU~1.asm(226): error A2105: Expected: instruction or directive
     228				                   MOV   3FHMOV        
					               ;01A7   F5 3F 
08AOYU~1.asm(227): error A2009: Symbol not defined: MOV
     229 00F1  FF 06 004B U		                   INC   4BHINC        
					               ;01A9   05 4B 
08AOYU~1.asm(228): error A2009: Symbol not defined: INC
     230				                   MOV   A,4MOV        
					               ;01AB   E5 4B 
08AOYU~1.asm(229): error A2009: Symbol not defined: A
     231				                   CJNE  A,#0AH,Q01C7  
					               ;01AD   B4 0A 17 
08AOYU~1.asm(230): error A2105: Expected: instruction or directive
     232				                   CLR   A             
					               ;01B0   E4 
08AOYU~1.asm(231): error A2105: Expected: instruction or directive
     233				                   MOV   4BHMOV        
					               ;01B1   F5 4B 
08AOYU~1.asm(232): error A2009: Symbol not defined: MOV
     234 00F5  FF 06 0023 U		                   INC   23HINC        
					               ;01B3   05 23 
08AOYU~1.asm(233): error A2009: Symbol not defined: INC
     235				                   MOV   A,2MOV        
					               ;01B5   E5 23 
08AOYU~1.asm(234): error A2009: Symbol not defined: A
     236				                   CJNE  A,#0AH,Q01C7  
					               ;01B7   B4 0A 0D 
08AOYU~1.asm(235): error A2105: Expected: instruction or directive
     237				                   CLR   A             
					               ;01BA   E4 
08AOYU~1.asm(236): error A2105: Expected: instruction or directive
     238				                   MOV   23HMOV        
					               ;01BB   F5 23 
08AOYU~1.asm(237): error A2009: Symbol not defined: MOV
     239 00F9  FF 06 0022 U		                   INC   22HINC        
					               ;01BD   05 22 
08AOYU~1.asm(238): error A2009: Symbol not defined: INC
     240				                   MOV   A,2MOV        
					               ;01BF   E5 22 
08AOYU~1.asm(239): error A2009: Symbol not defined: A
     241				                   CJNE  A,#0AH,Q01C7  
					               ;01C1   B4 0A 03 
08AOYU~1.asm(240): error A2105: Expected: instruction or directive
     242				                   CLR   A             
					               ;01C4   E4 
08AOYU~1.asm(241): error A2105: Expected: instruction or directive
     243				                   MOV   22HMOV        
					               ;01C5   F5 22 
08AOYU~1.asm(242): error A2009: Symbol not defined: MOV
Microsoft (R) Macro Assembler Version 5.00                  6/22/7                                                             Page     1-14


     244 00FD  C3			Q01C7:             RET      RET        
					               ;01C7   22 
08AOYU~1.asm(243): error A2062: Missing or unreachable CS
     245				;======================================
					==================================== 
     246 00FE  C7 06 0050 U 01CF	Q01C8:             MOV   50HMOVH       
					               ;01C8   85 30 50 
08AOYU~1.asm(245): error A2062: Missing or unreachable CS
     247 0104  C7 06 004A U 00CD	                   MOV   4AHMOVH       
					               ;01CB   85 2F 4A 
08AOYU~1.asm(246): error A2009: Symbol not defined: MOVH
     248				Q01CE:             MOV   DPTMOV7FFFH   
					               ;01CE   90 7F FF 
08AOYU~1.asm(247): error A2062: Missing or unreachable CS
     249 010A  C7 06 0000 U 0000	                   MOV   A,#MOVH       
					               ;01D1   74 DF 
08AOYU~1.asm(248): error A2009: Symbol not defined: A
     250				                   MOVX  @DPTR,A       
					               ;01D3   F0 
08AOYU~1.asm(249): error A2105: Expected: instruction or directive
     251				                   MOV   A,3MOV        
					               ;01D4   E5 3D 
08AOYU~1.asm(250): error A2009: Symbol not defined: A
     252				                   ADD   A,AADD        
					               ;01D6   25 E0 
08AOYU~1.asm(251): error A2009: Symbol not defined: A
     253 0110  83 06 0000 U 00		                   ADD   A,#ADD        
					               ;01D8   24 6D 
08AOYU~1.asm(252): error A2009: Symbol not defined: A
     254				                   MOV   DPLMOV        
					               ;01DA   F5 82 
08AOYU~1.asm(253): error A2009: Symbol not defined: DPLMOV
     255				                   CLR   A             
					               ;01DC   E4 
08AOYU~1.asm(254): error A2105: Expected: instruction or directive
     256				                   ADDC  A,#0AH        
					               ;01DD   34 0A 
08AOYU~1.asm(255): error A2105: Expected: instruction or directive
     257				                   MOV   DPHMOV        
					               ;01DF   F5 83 
08AOYU~1.asm(256): error A2009: Symbol not defined: DPHMOV
     258 0115  C7 06 0000 U 0000	                   MOV   A,#MOV        
					               ;01E1   74 01 
08AOYU~1.asm(257): error A2009: Symbol not defined: A
     259				                   MOVC  A,@A+DPTR     
					               ;01E3   93 
08AOYU~1.asm(258): error A2105: Expected: instruction or directive
     260				                   MOV   DPTMOV0BFFFH  
					               ;01E4   90 BF FF 
08AOYU~1.asm(259): error A2009: Symbol not defined: DPTMOV0BFFFH
     261				                   LCALL Q0A03         
					               ;01E7   12 0A 03 
08AOYU~1.asm(260): error A2105: Expected: instruction or directive
     262				                   MOV   DPTMOV7FFFH   
Microsoft (R) Macro Assembler Version 5.00                  6/22/7                                                             Page     1-15


					               ;01EA   90 7F FF 
08AOYU~1.asm(261): error A2009: Symbol not defined: DPTMOV7FFFH
     263 011B  C7 06 0000 U 0000	                   MOV   A,#MOVH       
					               ;01ED   74 EF 
08AOYU~1.asm(262): error A2009: Symbol not defined: A
     264				                   MOVX  @DPTR,A       
					               ;01EF   F0 
08AOYU~1.asm(263): error A2105: Expected: instruction or directive
     265				                   MOV   A,3MOV        
					               ;01F0   E5 3A 
08AOYU~1.asm(264): error A2009: Symbol not defined: A
     266				                   ADD   A,AADD        
					               ;01F2   25 E0 
08AOYU~1.asm(265): error A2009: Symbol not defined: A
     267 0121  83 06 0000 U 00		                   ADD   A,#ADD        
					               ;01F4   24 6D 
08AOYU~1.asm(266): error A2009: Symbol not defined: A
     268				                   MOV   DPLMOV        
					               ;01F6   F5 82 
08AOYU~1.asm(267): error A2009: Symbol not defined: DPLMOV
     269				                   CLR   A             
					               ;01F8   E4 
08AOYU~1.asm(268): error A2105: Expected: instruction or directive
     270				                   ADDC  A,#0AH        
					               ;01F9   34 0A 
08AOYU~1.asm(269): error A2105: Expected: instruction or directive
     271				                   MOV   DPHMOV        
					               ;01FB   F5 83 
08AOYU~1.asm(270): error A2009: Symbol not defined: DPHMOV
     272 0126  C7 06 0000 U 0000	                   MOV   A,#MOV        
					               ;01FD   74 01 
08AOYU~1.asm(271): error A2009: Symbol not defined: A
     273				                   MOVC  A,@A+DPTR     
					               ;01FF   93 
08AOYU~1.asm(272): error A2105: Expected: instruction or directive
     274				                   MOV   DPTMOV0BFFFH  
					               ;0200   90 BF FF 
08AOYU~1.asm(273): error A2009: Symbol not defined: DPTMOV0BFFFH
     275				                   LCALL Q0A03         
					               ;0203   12 0A 03 
08AOYU~1.asm(274): error A2105: Expected: instruction or directive
     276				                   MOV   DPTMOV7FFFH   
					               ;0206   90 7F FF 
08AOYU~1.asm(275): error A2009: Symbol not defined: DPTMOV7FFFH
     277 012C  C7 06 0000 U 0000	                   MOV   A,#MOVH       
					               ;0209   74 F7 
08AOYU~1.asm(276): error A2009: Symbol not defined: A
     278				                   MOVX  @DPTR,A       
					               ;020B   F0 
08AOYU~1.asm(277): error A2105: Expected: instruction or directive
     279				                   MOV   A,4MOV        
					               ;020C   E5 49 
08AOYU~1.asm(278): error A2009: Symbol not defined: A
     280				                   ADD   A,AADD        
Microsoft (R) Macro Assembler Version 5.00                  6/22/7                                                             Page     1-16


					               ;020E   25 E0 
08AOYU~1.asm(279): error A2009: Symbol not defined: A
     281 0132  83 06 0000 U 00		                   ADD   A,#ADD        
					               ;0210   24 6D 
08AOYU~1.asm(280): error A2009: Symbol not defined: A
     282				                   MOV   DPLMOV        
					               ;0212   F5 82 
08AOYU~1.asm(281): error A2009: Symbol not defined: DPLMOV
     283				                   CLR   A             
					               ;0214   E4 
08AOYU~1.asm(282): error A2105: Expected: instruction or directive
     284				                   ADDC  A,#0AH        
					               ;0215   34 0A 
08AOYU~1.asm(283): error A2105: Expected: instruction or directive
     285				                   MOV   DPHMOV        
					               ;0217   F5 83 
08AOYU~1.asm(284): error A2009: Symbol not defined: DPHMOV
     286 0137  C7 06 0000 U 0000	                   MOV   A,#MOV        
					               ;0219   74 01 
08AOYU~1.asm(285): error A2009: Symbol not defined: A
     287				                   MOVC  A,@A+DPTR     
					               ;021B   93 
08AOYU~1.asm(286): error A2105: Expected: instruction or directive
     288				                   ORL   A,#80H        
					               ;021C   44 80 
08AOYU~1.asm(287): error A2105: Expected: instruction or directive
     289				                   MOV   DPTMOV0BFFFH  
					               ;021E   90 BF FF 
08AOYU~1.asm(288): error A2009: Symbol not defined: DPTMOV0BFFFH
     290				                   LCALL Q0A03         
					               ;0221   12 0A 03 
08AOYU~1.asm(289): error A2105: Expected: instruction or directive
     291				                   MOV   DPTMOV7FFFH   
					               ;0224   90 7F FF 
08AOYU~1.asm(290): error A2009: Symbol not defined: DPTMOV7FFFH
     292 013D  C7 06 0000 U 0000	                   MOV   A,#MOVH       
					               ;0227   74 FB 
08AOYU~1.asm(291): error A2009: Symbol not defined: A
     293				                   MOVX  @DPTR,A       
					               ;0229   F0 
08AOYU~1.asm(292): error A2105: Expected: instruction or directive
     294				                   MOV   A,4MOV        
					               ;022A   E5 44 
08AOYU~1.asm(293): error A2009: Symbol not defined: A
     295				                   ADD   A,AADD        
					               ;022C   25 E0 
08AOYU~1.asm(294): error A2009: Symbol not defined: A
     296 0143  83 06 0000 U 00		                   ADD   A,#ADD        
					               ;022E   24 6D 
08AOYU~1.asm(295): error A2009: Symbol not defined: A
     297				                   MOV   DPLMOV        
					               ;0230   F5 82 
08AOYU~1.asm(296): error A2009: Symbol not defined: DPLMOV
     298				                   CLR   A             
Microsoft (R) Macro Assembler Version 5.00                  6/22/7                                                             Page     1-17


					               ;0232   E4 
08AOYU~1.asm(297): error A2105: Expected: instruction or directive
     299				                   ADDC  A,#0AH        
					               ;0233   34 0A 
08AOYU~1.asm(298): error A2105: Expected: instruction or directive
     300				                   MOV   DPHMOV        
					               ;0235   F5 83 
08AOYU~1.asm(299): error A2009: Symbol not defined: DPHMOV
     301 0148  C7 06 0000 U 0000	                   MOV   A,#MOV        
					               ;0237   74 01 
08AOYU~1.asm(300): error A2009: Symbol not defined: A
     302				                   MOVC  A,@A+DPTR     
					               ;0239   93 
08AOYU~1.asm(301): error A2105: Expected: instruction or directive
     303				                   MOV   DPTMOV0BFFFH  
					               ;023A   90 BF FF 
08AOYU~1.asm(302): error A2009: Symbol not defined: DPTMOV0BFFFH
     304				                   LCALL Q0A03         
					               ;023D   12 0A 03 
08AOYU~1.asm(303): error A2105: Expected: instruction or directive
     305				                   MOV   DPTMOV7FFFH   
					               ;0240   90 7F FF 
08AOYU~1.asm(304): error A2009: Symbol not defined: DPTMOV7FFFH
     306 014E  C7 06 0000 U 0000	                   MOV   A,#MOVH       
					               ;0243   74 FD 
08AOYU~1.asm(305): error A2009: Symbol not defined: A
     307				                   MOVX  @DPTR,A       
					               ;0245   F0 
08AOYU~1.asm(306): error A2105: Expected: instruction or directive
     308				                   MOV   A,5MOV        
					               ;0246   E5 50 
08AOYU~1.asm(307): error A2009: Symbol not defined: A
     309				                   ADD   A,AADD        
					               ;0248   25 E0 
08AOYU~1.asm(308): error A2009: Symbol not defined: A
     310 0154  83 06 0000 U 00		                   ADD   A,#ADD        
					               ;024A   24 6D 
08AOYU~1.asm(309): error A2009: Symbol not defined: A
     311				                   MOV   DPLMOV        
					               ;024C   F5 82 
08AOYU~1.asm(310): error A2009: Symbol not defined: DPLMOV
     312				                   CLR   A             
					               ;024E   E4 
08AOYU~1.asm(311): error A2105: Expected: instruction or directive
     313				                   ADDC  A,#0AH        
					               ;024F   34 0A 
08AOYU~1.asm(312): error A2105: Expected: instruction or directive
     314				                   MOV   DPHMOV        
					               ;0251   F5 83 
08AOYU~1.asm(313): error A2009: Symbol not defined: DPHMOV
     315 0159  C7 06 0000 U 0000	                   MOV   A,#MOV        
					               ;0253   74 01 
08AOYU~1.asm(314): error A2009: Symbol not defined: A
     316				                   MOVC  A,@A+DPTR     
Microsoft (R) Macro Assembler Version 5.00                  6/22/7                                                             Page     1-18


					               ;0255   93 
08AOYU~1.asm(315): error A2105: Expected: instruction or directive
     317				                   ORL   A,#80H        
					               ;0256   44 80 
08AOYU~1.asm(316): error A2105: Expected: instruction or directive
     318				                   MOV   DPTMOV0BFFFH  
					               ;0258   90 BF FF 
08AOYU~1.asm(317): error A2009: Symbol not defined: DPTMOV0BFFFH
     319				                   LCALL Q0A03         
					               ;025B   12 0A 03 
08AOYU~1.asm(318): error A2105: Expected: instruction or directive
     320				                   MOV   DPTMOV7FFFH   
					               ;025E   90 7F FF 
08AOYU~1.asm(319): error A2009: Symbol not defined: DPTMOV7FFFH
     321 015F  C7 06 0000 U 0000	                   MOV   A,#MOVH       
					               ;0261   74 FE 
08AOYU~1.asm(320): error A2009: Symbol not defined: A
     322				                   MOVX  @DPTR,A       
					               ;0263   F0 
08AOYU~1.asm(321): error A2105: Expected: instruction or directive
     323				                   MOV   A,4MOV        
					               ;0264   E5 4A 
08AOYU~1.asm(322): error A2009: Symbol not defined: A
     324				                   ADD   A,AADD        
					               ;0266   25 E0 
08AOYU~1.asm(323): error A2009: Symbol not defined: A
     325 0165  83 06 0000 U 00		                   ADD   A,#ADD        
					               ;0268   24 6D 
08AOYU~1.asm(324): error A2009: Symbol not defined: A
     326				                   MOV   DPLMOV        
					               ;026A   F5 82 
08AOYU~1.asm(325): error A2009: Symbol not defined: DPLMOV
     327				                   CLR   A             
					               ;026C   E4 
08AOYU~1.asm(326): error A2105: Expected: instruction or directive
     328				                   ADDC  A,#0AH        
					               ;026D   34 0A 
08AOYU~1.asm(327): error A2105: Expected: instruction or directive
     329				                   MOV   DPHMOV        
					               ;026F   F5 83 
08AOYU~1.asm(328): error A2009: Symbol not defined: DPHMOV
     330 016A  C7 06 0000 U 0000	                   MOV   A,#MOV        
					               ;0271   74 01 
08AOYU~1.asm(329): error A2009: Symbol not defined: A
     331				                   MOVC  A,@A+DPTR     
					               ;0273   93 
08AOYU~1.asm(330): error A2105: Expected: instruction or directive
     332				                   MOV   DPTMOV0BFFFH  
					               ;0274   90 BF FF 
08AOYU~1.asm(331): error A2009: Symbol not defined: DPTMOV0BFFFH
     333				                   LCALL Q0A03         
					               ;0277   12 0A 03 
08AOYU~1.asm(332): error A2105: Expected: instruction or directive
     334				                   MOV   DPTMOV0DFFFH  
Microsoft (R) Macro Assembler Version 5.00                  6/22/7                                                             Page     1-19


					               ;027A   90 DF FF 
08AOYU~1.asm(333): error A2009: Symbol not defined: DPTMOV0DFFFH
     335 0170  C7 06 0000 U 0000	                   MOV   A,#MOV        
					               ;027D   74 7F 
08AOYU~1.asm(334): error A2009: Symbol not defined: A
     336				                   MOVX  @DPTR,A       
					               ;027F   F0 
08AOYU~1.asm(335): error A2105: Expected: instruction or directive
     337				                   MOV   A,4MOV        
					               ;0280   E5 46 
08AOYU~1.asm(336): error A2009: Symbol not defined: A
     338				                   LCALL Q09F2         
					               ;0282   12 09 F2 
08AOYU~1.asm(337): error A2105: Expected: instruction or directive
     339				                   MOV   DPTMOV0DFFFH  
					               ;0285   90 DF FF 
08AOYU~1.asm(338): error A2009: Symbol not defined: DPTMOV0DFFFH
     340 0176  C7 06 0000 U 0000	                   MOV   A,#MOVH       
					               ;0288   74 BF 
08AOYU~1.asm(339): error A2009: Symbol not defined: A
     341				                   MOVX  @DPTR,A       
					               ;028A   F0 
08AOYU~1.asm(340): error A2105: Expected: instruction or directive
     342				                   MOV   A,5MOV        
					               ;028B   E5 53 
08AOYU~1.asm(341): error A2009: Symbol not defined: A
     343				                   LCALL Q09F2         
					               ;028D   12 09 F2 
08AOYU~1.asm(342): error A2105: Expected: instruction or directive
     344				                   MOV   DPTMOV0DFFFH  
					               ;0290   90 DF FF 
08AOYU~1.asm(343): error A2009: Symbol not defined: DPTMOV0DFFFH
     345 017C  C7 06 0000 U 0000	                   MOV   A,#MOVH       
					               ;0293   74 DF 
08AOYU~1.asm(344): error A2009: Symbol not defined: A
     346				                   MOVX  @DPTR,A       
					               ;0295   F0 
08AOYU~1.asm(345): error A2105: Expected: instruction or directive
     347				                   MOV   A,3MOV        
					               ;0296   E5 39 
08AOYU~1.asm(346): error A2009: Symbol not defined: A
     348				                   ADD   A,AADD        
					               ;0298   25 E0 
08AOYU~1.asm(347): error A2009: Symbol not defined: A
     349 0182  83 06 0000 U 00		                   ADD   A,#ADD        
					               ;029A   24 6D 
08AOYU~1.asm(348): error A2009: Symbol not defined: A
     350				                   MOV   DPLMOV        
					               ;029C   F5 82 
08AOYU~1.asm(349): error A2009: Symbol not defined: DPLMOV
     351				                   CLR   A             
					               ;029E   E4 
08AOYU~1.asm(350): error A2105: Expected: instruction or directive
     352				                   ADDC  A,#0AH        
Microsoft (R) Macro Assembler Version 5.00                  6/22/7                                                             Page     1-20


					               ;029F   34 0A 
08AOYU~1.asm(351): error A2105: Expected: instruction or directive
     353				                   MOV   DPHMOV        
					               ;02A1   F5 83 
08AOYU~1.asm(352): error A2009: Symbol not defined: DPHMOV
     354 0187  C7 06 0000 U 0000	                   MOV   A,#MOV        
					               ;02A3   74 01 
08AOYU~1.asm(353): error A2009: Symbol not defined: A
     355				                   MOVC  A,@A+DPTR     
					               ;02A5   93 
08AOYU~1.asm(354): error A2105: Expected: instruction or directive
     356				                   ORL   A,#80H        
					               ;02A6   44 80 
08AOYU~1.asm(355): error A2105: Expected: instruction or directive
     357				                   LCALL Q0A00         
					               ;02A8   12 0A 00 
08AOYU~1.asm(356): error A2105: Expected: instruction or directive
     358				                   MOV   DPTMOV0DFFFH  
					               ;02AB   90 DF FF 
08AOYU~1.asm(357): error A2009: Symbol not defined: DPTMOV0DFFFH
     359 018D  C7 06 0000 U 0000	                   MOV   A,#MOVH       
					               ;02AE   74 EF 
08AOYU~1.asm(358): error A2009: Symbol not defined: A
     360				                   MOVX  @DPTR,A       
					               ;02B0   F0 
08AOYU~1.asm(359): error A2105: Expected: instruction or directive
     361				                   MOV   A,4MOV        
					               ;02B1   E5 47 
08AOYU~1.asm(360): error A2009: Symbol not defined: A
     362				                   LCALL Q09F2         
					               ;02B3   12 09 F2 
08AOYU~1.asm(361): error A2105: Expected: instruction or directive
     363				                   MOV   DPTMOV0DFFFH  
					               ;02B6   90 DF FF 
08AOYU~1.asm(362): error A2009: Symbol not defined: DPTMOV0DFFFH
     364 0193  C7 06 0000 U 0000	                   MOV   A,#MOVH       
					               ;02B9   74 F7 
08AOYU~1.asm(363): error A2009: Symbol not defined: A
     365				                   MOVX  @DPTR,A       
					               ;02BB   F0 
08AOYU~1.asm(364): error A2105: Expected: instruction or directive
     366				                   MOV   A,3MOV        
					               ;02BC   E5 3F 
08AOYU~1.asm(365): error A2009: Symbol not defined: A
     367				                   ADD   A,AADD        
					               ;02BE   25 E0 
08AOYU~1.asm(366): error A2009: Symbol not defined: A
     368 0199  83 06 0000 U 00		                   ADD   A,#ADD        
					               ;02C0   24 6D 
08AOYU~1.asm(367): error A2009: Symbol not defined: A
     369				                   MOV   DPLMOV        
					               ;02C2   F5 82 
08AOYU~1.asm(368): error A2009: Symbol not defined: DPLMOV
     370				                   CLR   A             
Microsoft (R) Macro Assembler Version 5.00                  6/22/7                                                             Page     1-21


					               ;02C4   E4 
08AOYU~1.asm(369): error A2105: Expected: instruction or directive
     371				                   ADDC  A,#0AH        
					               ;02C5   34 0A 
08AOYU~1.asm(370): error A2105: Expected: instruction or directive
     372				                   MOV   DPHMOV        
					               ;02C7   F5 83 
08AOYU~1.asm(371): error A2009: Symbol not defined: DPHMOV
     373 019E  C7 06 0000 U 0000	                   MOV   A,#MOV        
					               ;02C9   74 01 
08AOYU~1.asm(372): error A2009: Symbol not defined: A
     374				                   MOVC  A,@A+DPTR     
					               ;02CB   93 
08AOYU~1.asm(373): error A2105: Expected: instruction or directive
     375				                   ORL   A,#80H        
					               ;02CC   44 80 
08AOYU~1.asm(374): error A2105: Expected: instruction or directive
     376				                   LCALL Q0A00         
					               ;02CE   12 0A 00 
08AOYU~1.asm(375): error A2105: Expected: instruction or directive
     377				                   MOV   DPTMOV0DFFFH  
					               ;02D1   90 DF FF 
08AOYU~1.asm(376): error A2009: Symbol not defined: DPTMOV0DFFFH
     378 01A4  C7 06 0000 U 0000	                   MOV   A,#MOVH       
					               ;02D4   74 FB 
08AOYU~1.asm(377): error A2009: Symbol not defined: A
     379				                   MOVX  @DPTR,A       
					               ;02D6   F0 
08AOYU~1.asm(378): error A2105: Expected: instruction or directive
     380				                   MOV   A,4MOV        
					               ;02D7   E5 4B 
08AOYU~1.asm(379): error A2009: Symbol not defined: A
     381				                   LCALL Q09F2         
					               ;02D9   12 09 F2 
08AOYU~1.asm(380): error A2105: Expected: instruction or directive
     382				                   MOV   DPTMOV0DFFFH  
					               ;02DC   90 DF FF 
08AOYU~1.asm(381): error A2009: Symbol not defined: DPTMOV0DFFFH
     383 01AA  C7 06 0000 U 0000	                   MOV   A,#MOVH       
					               ;02DF   74 FD 
08AOYU~1.asm(382): error A2009: Symbol not defined: A
     384				                   MOVX  @DPTR,A       
					               ;02E1   F0 
08AOYU~1.asm(383): error A2105: Expected: instruction or directive
     385				                   MOV   A,2MOV        
					               ;02E2   E5 23 
08AOYU~1.asm(384): error A2009: Symbol not defined: A
     386				                   LCALL Q09F2         
					               ;02E4   12 09 F2 
08AOYU~1.asm(385): error A2105: Expected: instruction or directive
     387				                   MOV   DPTMOV0DFFFH  
					               ;02E7   90 DF FF 
08AOYU~1.asm(386): error A2009: Symbol not defined: DPTMOV0DFFFH
     388 01B0  C7 06 0000 U 0000	                   MOV   A,#MOVH       
Microsoft (R) Macro Assembler Version 5.00                  6/22/7                                                             Page     1-22


					               ;02EA   74 FE 
08AOYU~1.asm(387): error A2009: Symbol not defined: A
     389				                   MOVX  @DPTR,A       
					               ;02EC   F0 
08AOYU~1.asm(388): error A2105: Expected: instruction or directive
     390				                   MOV   A,2MOV        
					               ;02ED   E5 22 
08AOYU~1.asm(389): error A2009: Symbol not defined: A
     391				                   LCALL Q09F2         
					               ;02EF   12 09 F2 
08AOYU~1.asm(390): error A2105: Expected: instruction or directive
     392				                   MOV   DPTMOV0F7FFH  
					               ;02F2   90 F7 FF 
08AOYU~1.asm(391): error A2009: Symbol not defined: DPTMOV0F7FFH
     393 01B6  C7 06 0000 U 0000	                   MOV   A,#MOVH       
					               ;02F5   74 F7 
08AOYU~1.asm(392): error A2009: Symbol not defined: A
     394				                   MOVX  @DPTR,A       
					               ;02F7   F0 
08AOYU~1.asm(393): error A2105: Expected: instruction or directive
     395				                   MOV   A,3MOV        
					               ;02F8   E5 32 
08AOYU~1.asm(394): error A2009: Symbol not defined: A
     396				                   ADD   A,AADD        
					               ;02FA   25 E0 
08AOYU~1.asm(395): error A2009: Symbol not defined: A
     397 01BC  83 06 0000 U 00		                   ADD   A,#ADD        
					               ;02FC   24 6D 
08AOYU~1.asm(396): error A2009: Symbol not defined: A
     398				                   MOV   DPLMOV        
					               ;02FE   F5 82 
08AOYU~1.asm(397): error A2009: Symbol not defined: DPLMOV
     399				                   CLR   A             
					               ;0300   E4 
08AOYU~1.asm(398): error A2105: Expected: instruction or directive
     400				                   ADDC  A,#0AH        
					               ;0301   34 0A 
08AOYU~1.asm(399): error A2105: Expected: instruction or directive
     401				                   MOV   DPHMOV        
					               ;0303   F5 83 
08AOYU~1.asm(400): error A2009: Symbol not defined: DPHMOV
     402 01C1  C7 06 0000 U 0000	                   MOV   A,#MOV        
					               ;0305   74 01 
08AOYU~1.asm(401): error A2009: Symbol not defined: A
     403				                   MOVC  A,@A+DPTR     
					               ;0307   93 
08AOYU~1.asm(402): error A2105: Expected: instruction or directive
     404				                   MOV   DPTMOV0FBFFH  
					               ;0308   90 FB FF 
08AOYU~1.asm(403): error A2009: Symbol not defined: DPTMOV0FBFFH
     405				                   LCALL Q0A03         
					               ;030B   12 0A 03 
08AOYU~1.asm(404): error A2105: Expected: instruction or directive
     406				                   MOV   DPTMOV0F7FFH  
Microsoft (R) Macro Assembler Version 5.00                  6/22/7                                                             Page     1-23


					               ;030E   90 F7 FF 
08AOYU~1.asm(405): error A2009: Symbol not defined: DPTMOV0F7FFH
     407 01C7  C7 06 0000 U 0000	                   MOV   A,#MOVH       
					               ;0311   74 FB 
08AOYU~1.asm(406): error A2009: Symbol not defined: A
     408				                   MOVX  @DPTR,A       
					               ;0313   F0 
08AOYU~1.asm(407): error A2105: Expected: instruction or directive
     409				                   MOV   A,3MOV        
					               ;0314   E5 37 
08AOYU~1.asm(408): error A2009: Symbol not defined: A
     410				                   ADD   A,AADD        
					               ;0316   25 E0 
08AOYU~1.asm(409): error A2009: Symbol not defined: A
     411 01CD  83 06 0000 U 00		                   ADD   A,#ADD        
					               ;0318   24 6D 
08AOYU~1.asm(410): error A2009: Symbol not defined: A
     412				                   MOV   DPLMOV        
					               ;031A   F5 82 
08AOYU~1.asm(411): error A2009: Symbol not defined: DPLMOV
     413				                   CLR   A             
					               ;031C   E4 
08AOYU~1.asm(412): error A2105: Expected: instruction or directive
     414				                   ADDC  A,#0AH        
					               ;031D   34 0A 
08AOYU~1.asm(413): error A2105: Expected: instruction or directive
     415				                   MOV   DPHMOV        
					               ;031F   F5 83 
08AOYU~1.asm(414): error A2009: Symbol not defined: DPHMOV
     416 01D2  C7 06 0000 U 0000	                   MOV   A,#MOV        
					               ;0321   74 01 
08AOYU~1.asm(415): error A2009: Symbol not defined: A
     417				                   MOVC  A,@A+DPTR     
					               ;0323   93 
08AOYU~1.asm(416): error A2105: Expected: instruction or directive
     418				                   MOV   DPTMOV0FBFFH  
					               ;0324   90 FB FF 
08AOYU~1.asm(417): error A2009: Symbol not defined: DPTMOV0FBFFH
     419				                   LCALL Q0A03         
					               ;0327   12 0A 03 
08AOYU~1.asm(418): error A2105: Expected: instruction or directive
     420				                   MOV   DPTMOV0F7FFH  
					               ;032A   90 F7 FF 
08AOYU~1.asm(419): error A2009: Symbol not defined: DPTMOV0F7FFH
     421 01D8  C7 06 0000 U 0000	                   MOV   A,#MOVH       
					               ;032D   74 FD 
08AOYU~1.asm(420): error A2009: Symbol not defined: A
     422				                   MOVX  @DPTR,A       
					               ;032F   F0 
08AOYU~1.asm(421): error A2105: Expected: instruction or directive
     423				                   MOV   A,4MOV        
					               ;0330   E5 40 
08AOYU~1.asm(422): error A2009: Symbol not defined: A
     424				                   ADD   A,AADD        
Microsoft (R) Macro Assembler Version 5.00                  6/22/7                                                             Page     1-24


					               ;0332   25 E0 
08AOYU~1.asm(423): error A2009: Symbol not defined: A
     425 01DE  83 06 0000 U 00		                   ADD   A,#ADD        
					               ;0334   24 6D 
08AOYU~1.asm(424): error A2009: Symbol not defined: A
     426				                   MOV   DPLMOV        
					               ;0336   F5 82 
08AOYU~1.asm(425): error A2009: Symbol not defined: DPLMOV
     427				                   CLR   A             
					               ;0338   E4 
08AOYU~1.asm(426): error A2105: Expected: instruction or directive
     428				                   ADDC  A,#0AH        
					               ;0339   34 0A 
08AOYU~1.asm(427): error A2105: Expected: instruction or directive
     429				                   MOV   DPHMOV        
					               ;033B   F5 83 
08AOYU~1.asm(428): error A2009: Symbol not defined: DPHMOV
     430 01E3  C7 06 0000 U 0000	                   MOV   A,#MOV        
					               ;033D   74 01 
08AOYU~1.asm(429): error A2009: Symbol not defined: A
     431				                   MOVC  A,@A+DPTR     
					               ;033F   93 
08AOYU~1.asm(430): error A2105: Expected: instruction or directive
     432				                   MOV   DPTMOV0FBFFH  
					               ;0340   90 FB FF 
08AOYU~1.asm(431): error A2009: Symbol not defined: DPTMOV0FBFFH
     433				                   LCALL Q0A03         
					               ;0343   12 0A 03 
08AOYU~1.asm(432): error A2105: Expected: instruction or directive
     434				                   MOV   DPTMOV0F7FFH  
					               ;0346   90 F7 FF 
08AOYU~1.asm(433): error A2009: Symbol not defined: DPTMOV0F7FFH
     435 01E9  C7 06 0000 U 0000	                   MOV   A,#MOVH       
					               ;0349   74 FE 
08AOYU~1.asm(434): error A2009: Symbol not defined: A
     436				                   MOVX  @DPTR,A       
					               ;034B   F0 
08AOYU~1.asm(435): error A2105: Expected: instruction or directive
     437				                   MOV   A,3MOV        
					               ;034C   E5 3E 
08AOYU~1.asm(436): error A2009: Symbol not defined: A
     438				                   ADD   A,AADD        
					               ;034E   25 E0 
08AOYU~1.asm(437): error A2009: Symbol not defined: A
     439 01EF  83 06 0000 U 00		                   ADD   A,#ADD        
					               ;0350   24 6D 
08AOYU~1.asm(438): error A2009: Symbol not defined: A
     440				                   MOV   DPLMOV        
					               ;0352   F5 82 
08AOYU~1.asm(439): error A2009: Symbol not defined: DPLMOV
     441				                   CLR   A             
					               ;0354   E4 
08AOYU~1.asm(440): error A2105: Expected: instruction or directive
     442				                   ADDC  A,#0AH        
Microsoft (R) Macro Assembler Version 5.00                  6/22/7                                                             Page     1-25


					               ;0355   34 0A 
08AOYU~1.asm(441): error A2105: Expected: instruction or directive
     443				                   MOV   DPHMOV        
					               ;0357   F5 83 
08AOYU~1.asm(442): error A2009: Symbol not defined: DPHMOV
     444 01F4  C7 06 0000 U 0000	                   MOV   A,#MOV        
					               ;0359   74 01 
08AOYU~1.asm(443): error A2009: Symbol not defined: A
     445				                   MOVC  A,@A+DPTR     
					               ;035B   93 
08AOYU~1.asm(444): error A2105: Expected: instruction or directive
     446				                   MOV   DPTMOV0FBFFH  
					               ;035C   90 FB FF 
08AOYU~1.asm(445): error A2009: Symbol not defined: DPTMOV0FBFFH
     447				                   MOVX  @DPTR,A       
					               ;035F   F0 
08AOYU~1.asm(446): error A2105: Expected: instruction or directive
     448				                   MOV   R7,MOVH       
					               ;0360   7F 03 
08AOYU~1.asm(447): error A2009: Symbol not defined: R7
     449				                   MOV   R6,MOVH       
					               ;0362   7E 00 
08AOYU~1.asm(448): error A2009: Symbol not defined: R6
     450				                   LJMP  Q0A08         
					               ;0364   02 0A 08 
08AOYU~1.asm(449): error A2105: Expected: instruction or directive
     451				;======================================
					==================================== 
     452 01FA  73 20			Q0367:             JNB   20HJNBQ03A3   
					               ;0367   30 05 39 
08AOYU~1.asm(451): error A2062: Missing or unreachable CS
     453				                   MOV   A,5MOV        
					               ;036A   E5 52 
08AOYU~1.asm(452): error A2009: Symbol not defined: A
     454				                   XRL   A,#18H        
					               ;036C   64 18 
08AOYU~1.asm(453): error A2105: Expected: instruction or directive
     455 01FC  74 00			                   JZ    Q03JZ         
					               ;036E   60 20 
08AOYU~1.asm(454): error A2009: Symbol not defined: Q03JZ
     456 01FE  FF 06 0052 U		                   INC   52HINC        
					               ;0370   05 52 
08AOYU~1.asm(455): error A2009: Symbol not defined: INC
     457 0202  FF 0E 0030 U		                   DEC   30HDEC        
					               ;0372   15 30 
08AOYU~1.asm(456): error A2009: Symbol not defined: DEC
     458				                   MOV   A,3MOV        
					               ;0374   E5 30 
08AOYU~1.asm(457): error A2009: Symbol not defined: A
     459				                   CPL   A             
					               ;0376   F4 
08AOYU~1.asm(458): error A2105: Expected: instruction or directive
     460 0206  74 00			                   JZ    Q03JZ         
					               ;0377   60 03 
08AOYU~1.asm(459): error A2009: Symbol not defined: Q03JZ
Microsoft (R) Macro Assembler Version 5.00                  6/22/7                                                             Page     1-26


     461				                   LJMP  Q0500         
					               ;0379   02 05 00 
08AOYU~1.asm(460): error A2105: Expected: instruction or directive
     462				;======================================
					==================================== 
     463 0208  C7 06 0030 U 01F7	Q037C:             MOV   30HMOV9H      
					               ;037C   75 30 09 
08AOYU~1.asm(462): error A2062: Missing or unreachable CS
     464 020E  FF 0E 002F U		                   DEC   2FHDEC        
					               ;037F   15 2F 
08AOYU~1.asm(463): error A2009: Symbol not defined: DEC
     465				                   MOV   A,2MOV        
					               ;0381   E5 2F 
08AOYU~1.asm(464): error A2009: Symbol not defined: A
     466				                   CPL   A             
					               ;0383   F4 
08AOYU~1.asm(465): error A2105: Expected: instruction or directive
     467 0212  74 00			                   JZ    Q03JZ         
					               ;0384   60 03 
08AOYU~1.asm(466): error A2009: Symbol not defined: Q03JZ
     468				                   LJMP  Q0500         
					               ;0386   02 05 00 
08AOYU~1.asm(467): error A2105: Expected: instruction or directive
     469				;======================================
					==================================== 
     470 0214  C7 06 002F U 01FC	Q0389:             MOV   2FHMOV2H      
					               ;0389   75 2F 02 
08AOYU~1.asm(469): error A2062: Missing or unreachable CS
     471 021A  C7 06 0030 U 01FB	                   MOV   30HMOV3H      
					               ;038C   75 30 03 
08AOYU~1.asm(470): error A2009: Symbol not defined: MOV3H
     472 0220  C3			                   RET      RET        
					               ;038F   22 
08AOYU~1.asm(471): error A2009: Symbol not defined: RET
     473				;======================================
					==================================== 
     474				Q0390:             MOV   A,5MOV        
					               ;0390   E5 52 
08AOYU~1.asm(473): error A2062: Missing or unreachable CS
     475				                   XRL   A,#18H        
					               ;0392   64 18 
08AOYU~1.asm(474): error A2105: Expected: instruction or directive
     476 0221  74 00			                   JZ    Q03JZ         
					               ;0394   60 03 
08AOYU~1.asm(475): error A2009: Symbol not defined: Q03JZ
     477				                   LJMP  Q0500         
					               ;0396   02 05 00 
08AOYU~1.asm(476): error A2105: Expected: instruction or directive
     478				;======================================
					==================================== 
     479 0223  C7 06 0052 U 020F	Q0399:             MOV   52HMOV1H      
					               ;0399   75 52 01 
08AOYU~1.asm(478): error A2062: Missing or unreachable CS
Microsoft (R) Macro Assembler Version 5.00                  6/22/7                                                             Page     1-27


     480 0229  C7 06 0030 U 0205	                   MOV   30HMOV3H      
					               ;039C   75 30 03 
08AOYU~1.asm(479): error A2009: Symbol not defined: MOV3H
     481 022F  C7 06 002F U 0213	                   MOV   2FHMOV2H      
					               ;039F   75 2F 02 
08AOYU~1.asm(480): error A2009: Symbol not defined: MOV2H
     482 0235  C3			                   RET      RET        
					               ;03A2   22 
08AOYU~1.asm(481): error A2009: Symbol not defined: RET
     483				;======================================
					==================================== 
     484 0236  73 20			Q03A3:             JNB   20HJNBQ03C1   
					               ;03A3   30 00 1B 
08AOYU~1.asm(483): error A2062: Missing or unreachable CS
     485 0238  FF 0E 002D U		                   DEC   2DHDEC        
					               ;03A6   15 2D 
08AOYU~1.asm(484): error A2009: Symbol not defined: DEC
     486				                   MOV   A,2MOV        
					               ;03A8   E5 2D 
08AOYU~1.asm(485): error A2009: Symbol not defined: A
     487				                   CPL   A             
					               ;03AA   F4 
08AOYU~1.asm(486): error A2105: Expected: instruction or directive
     488 023C  74 00			                   JZ    Q03JZ         
					               ;03AB   60 03 
08AOYU~1.asm(487): error A2009: Symbol not defined: Q03JZ
     489				                   LJMP  Q0500         
					               ;03AD   02 05 00 
08AOYU~1.asm(488): error A2105: Expected: instruction or directive
     490				;======================================
					==================================== 
     491 023E  C7 06 002D U 0236	Q03B0:             MOV   2DHMOV9H      
					               ;03B0   75 2D 09 
08AOYU~1.asm(490): error A2062: Missing or unreachable CS
     492 0244  FF 0E 002A U		                   DEC   2AHDEC        
					               ;03B3   15 2A 
08AOYU~1.asm(491): error A2009: Symbol not defined: DEC
     493				                   MOV   A,2MOV        
					               ;03B5   E5 2A 
08AOYU~1.asm(492): error A2009: Symbol not defined: A
     494				                   CPL   A             
					               ;03B7   F4 
08AOYU~1.asm(493): error A2105: Expected: instruction or directive
     495 0248  74 00			                   JZ    Q03JZ         
					               ;03B8   60 03 
08AOYU~1.asm(494): error A2009: Symbol not defined: Q03JZ
     496				                   LJMP  Q0500         
					               ;03BA   02 05 00 
08AOYU~1.asm(495): error A2105: Expected: instruction or directive
     497				;======================================
					==================================== 
     498 024A  C7 06 002A U 00A5	Q03BD:             MOV   2AHMOV5H      
					               ;03BD   75 2A 05 
08AOYU~1.asm(497): error A2062: Missing or unreachable CS
Microsoft (R) Macro Assembler Version 5.00                  6/22/7                                                             Page     1-28


     499 0250  C3			                   RET      RET        
					               ;03C0   22 
08AOYU~1.asm(498): error A2009: Symbol not defined: RET
     500				;======================================
					==================================== 
     501 0251  73 20			Q03C1:             JNB   20HJNBQ03F9   
					               ;03C1   30 04 35 
08AOYU~1.asm(500): error A2062: Missing or unreachable CS
     502 0253  FF 0E 0028 U		                   DEC   28HDEC        
					               ;03C4   15 28 
08AOYU~1.asm(501): error A2009: Symbol not defined: DEC
     503				                   MOV   A,2MOV        
					               ;03C6   E5 28 
08AOYU~1.asm(502): error A2009: Symbol not defined: A
     504				                   CPL   A             
					               ;03C8   F4 
08AOYU~1.asm(503): error A2105: Expected: instruction or directive
     505 0257  74 00			                   JZ    Q03JZ         
					               ;03C9   60 03 
08AOYU~1.asm(504): error A2009: Symbol not defined: Q03JZ
     506				                   LJMP  Q0500         
					               ;03CB   02 05 00 
08AOYU~1.asm(505): error A2105: Expected: instruction or directive
     507				;======================================
					==================================== 
     508 0259  C7 06 0028 U 026F	Q03CE:             MOV   28HMOV9H      
					               ;03CE   75 28 09 
08AOYU~1.asm(507): error A2062: Missing or unreachable CS
     509 025F  FF 0E 003C U		                   DEC   3CHDEC        
					               ;03D1   15 3C 
08AOYU~1.asm(508): error A2009: Symbol not defined: DEC
     510				                   MOV   A,3MOV        
					               ;03D3   E5 3C 
08AOYU~1.asm(509): error A2009: Symbol not defined: A
     511				                   CPL   A             
					               ;03D5   F4 
08AOYU~1.asm(510): error A2105: Expected: instruction or directive
     512 0263  74 00			                   JZ    Q03JZ         
					               ;03D6   60 03 
08AOYU~1.asm(511): error A2009: Symbol not defined: Q03JZ
     513				                   LJMP  Q0500         
					               ;03D8   02 05 00 
08AOYU~1.asm(512): error A2105: Expected: instruction or directive
     514				;======================================
					==================================== 
     515 0265  C7 06 003C U 009F	Q03DB:             MOV   3CHMOV9H      
					               ;03DB   75 3C 09 
08AOYU~1.asm(514): error A2062: Missing or unreachable CS
     516 026B  FF 0E 0051 U		                   DEC   51HDEC        
					               ;03DE   15 51 
08AOYU~1.asm(515): error A2009: Symbol not defined: DEC
     517				                   MOV   A,5MOV        
					               ;03E0   E5 51 
08AOYU~1.asm(516): error A2009: Symbol not defined: A
Microsoft (R) Macro Assembler Version 5.00                  6/22/7                                                             Page     1-29


     518				                   CPL   A             
					               ;03E2   F4 
08AOYU~1.asm(517): error A2105: Expected: instruction or directive
     519 026F  74 00			                   JZ    Q03JZ         
					               ;03E3   60 03 
08AOYU~1.asm(518): error A2009: Symbol not defined: Q03JZ
     520				                   LJMP  Q0500         
					               ;03E5   02 05 00 
08AOYU~1.asm(519): error A2105: Expected: instruction or directive
     521				;======================================
					==================================== 
     522 0271  C7 06 0051 U 028D	Q03E8:             MOV   51HMOV9H      
					               ;03E8   75 51 09 
08AOYU~1.asm(521): error A2062: Missing or unreachable CS
     523 0277  FF 0E 0029 U		                   DEC   29HDEC        
					               ;03EB   15 29 
08AOYU~1.asm(522): error A2009: Symbol not defined: DEC
     524				                   MOV   A,2MOV        
					               ;03ED   E5 29 
08AOYU~1.asm(523): error A2009: Symbol not defined: A
     525				                   CPL   A             
					               ;03EF   F4 
08AOYU~1.asm(524): error A2105: Expected: instruction or directive
     526 027B  74 00			                   JZ    Q03JZ         
					               ;03F0   60 03 
08AOYU~1.asm(525): error A2009: Symbol not defined: Q03JZ
     527				                   LJMP  Q0500         
					               ;03F2   02 05 00 
08AOYU~1.asm(526): error A2105: Expected: instruction or directive
     528				;======================================
					==================================== 
     529 027D  C7 06 0029 U 027E	Q03F5:             MOV   29HMOV9H      
					               ;03F5   75 29 09 
08AOYU~1.asm(528): error A2062: Missing or unreachable CS
     530 0283  C3			                   RET      RET        
					               ;03F8   22 
08AOYU~1.asm(529): error A2009: Symbol not defined: RET
     531				;======================================
					==================================== 
     532 0284  73 20			Q03F9:             JNB   20HJNBQ0427   
					               ;03F9   30 03 2B 
08AOYU~1.asm(531): error A2062: Missing or unreachable CS
     533				                   MOV   A,4MOV        
					               ;03FC   E5 41 
08AOYU~1.asm(532): error A2009: Symbol not defined: A
     534				                   XRL   A,#0CH        
					               ;03FE   64 0C 
08AOYU~1.asm(533): error A2105: Expected: instruction or directive
     535 0286  74 00			                   JZ    Q04JZ         
					               ;0400   60 12 
08AOYU~1.asm(534): error A2009: Symbol not defined: Q04JZ
     536 0288  FF 06 0041 U		                   INC   41HINC        
					               ;0402   05 41 
08AOYU~1.asm(535): error A2009: Symbol not defined: INC
Microsoft (R) Macro Assembler Version 5.00                  6/22/7                                                             Page     1-30


     537 028C  FF 0E 0054 U		                   DEC   54HDEC        
					               ;0404   15 54 
08AOYU~1.asm(536): error A2009: Symbol not defined: DEC
     538				                   MOV   A,5MOV        
					               ;0406   E5 54 
08AOYU~1.asm(537): error A2009: Symbol not defined: A
     539				                   CPL   A             
					               ;0408   F4 
08AOYU~1.asm(538): error A2105: Expected: instruction or directive
     540 0290  74 00			                   JZ    Q04JZ         
					               ;0409   60 03 
08AOYU~1.asm(539): error A2009: Symbol not defined: Q04JZ
     541				                   LJMP  Q0500         
					               ;040B   02 05 00 
08AOYU~1.asm(540): error A2105: Expected: instruction or directive
     542				;======================================
					==================================== 
     543 0292  C7 06 0054 U 022F	Q040E:             MOV   54HMOV9H      
					               ;040E   75 54 09 
08AOYU~1.asm(542): error A2062: Missing or unreachable CS
     544 0298  FF 0E 0038 U		                   DEC   38HDEC        
					               ;0411   15 38 
08AOYU~1.asm(543): error A2009: Symbol not defined: DEC
     545 029C  C3			                   RET      RET        
					               ;0413   22 
08AOYU~1.asm(544): error A2009: Symbol not defined: RET
     546				;======================================
					==================================== 
     547				Q0414:             MOV   A,4MOV        
					               ;0414   E5 41 
08AOYU~1.asm(546): error A2062: Missing or unreachable CS
     548				                   XRL   A,#0CH        
					               ;0416   64 0C 
08AOYU~1.asm(547): error A2105: Expected: instruction or directive
     549 029D  74 00			                   JZ    Q04JZ         
					               ;0418   60 03 
08AOYU~1.asm(548): error A2009: Symbol not defined: Q04JZ
     550				                   LJMP  Q0500         
					               ;041A   02 05 00 
08AOYU~1.asm(549): error A2105: Expected: instruction or directive
     551				;======================================
					==================================== 
     552 029F  C7 06 0041 U 009E	Q041D:             MOV   41HMOV1H      
					               ;041D   75 41 01 
08AOYU~1.asm(551): error A2062: Missing or unreachable CS
     553 02A5  C7 06 0054 U 0227	                   MOV   54HMOV2H      
					               ;0420   75 54 02 
08AOYU~1.asm(552): error A2009: Symbol not defined: MOV2H
     554 02AB  C7 06 0038 U 0219	                   MOV   38HMOV1H      
					               ;0423   75 38 01 
08AOYU~1.asm(553): error A2009: Symbol not defined: MOV1H
     555 02B1  C3			                   RET      RET        
					               ;0426   22 
08AOYU~1.asm(554): error A2009: Symbol not defined: RET
Microsoft (R) Macro Assembler Version 5.00                  6/22/7                                                             Page     1-31


     556				;======================================
					==================================== 
     557 02B2  72 20			Q0427:             JB    20HJB,Q042D   
					               ;0427   20 02 03 
08AOYU~1.asm(556): error A2062: Missing or unreachable CS
     558				                   LJMP  Q04D5         
					               ;042A   02 04 D5 
08AOYU~1.asm(557): error A2105: Expected: instruction or directive
     559				;======================================
					==================================== 
     560				Q042D:             MOV   A,5MOV        
					               ;042D   E5 54 
08AOYU~1.asm(559): error A2062: Missing or unreachable CS
     561				                   ORL   A,#0FEH       
					               ;042F   44 FE 
08AOYU~1.asm(560): error A2105: Expected: instruction or directive
     562				                   MOV   R7,MOV        
					               ;0431   FF 
08AOYU~1.asm(561): error A2009: Symbol not defined: R7
     563				                   CPL   A             
					               ;0432   F4 
08AOYU~1.asm(562): error A2105: Expected: instruction or directive
     564 02B4  75 00			                   JNZ   Q04JNZ        
					               ;0433   70 27 
08AOYU~1.asm(563): error A2009: Symbol not defined: Q04JNZ
     565				                   MOV   A,4MOV        
					               ;0435   E5 42 
08AOYU~1.asm(564): error A2009: Symbol not defined: A
     566				                   XRL   A,#1FH        
					               ;0437   64 1F 
08AOYU~1.asm(565): error A2105: Expected: instruction or directive
     567 02B6  74 00			                   JZ    Q04JZ         
					               ;0439   60 0E 
08AOYU~1.asm(566): error A2009: Symbol not defined: Q04JZ
     568 02B8  FF 06 0042 U		                   INC   42HINC        
					               ;043B   05 42 
08AOYU~1.asm(567): error A2009: Symbol not defined: INC
     569 02BC  FF 0E 002E U		                   DEC   2EHDEC        
					               ;043D   15 2E 
08AOYU~1.asm(568): error A2009: Symbol not defined: DEC
     570				                   MOV   A,2MOV        
					               ;043F   E5 2E 
08AOYU~1.asm(569): error A2009: Symbol not defined: A
     571				                   CPL   A             
					               ;0441   F4 
08AOYU~1.asm(570): error A2105: Expected: instruction or directive
     572 02C0  74 00			                   JZ    Q04JZ         
					               ;0442   60 03 
08AOYU~1.asm(571): error A2009: Symbol not defined: Q04JZ
     573				                   LJMP  Q0500         
					               ;0444   02 05 00 
08AOYU~1.asm(572): error A2105: Expected: instruction or directive
     574				;======================================
					==================================== 
Microsoft (R) Macro Assembler Version 5.00                  6/22/7                                                             Page     1-32


     575				Q0447:             SJMP  Q047B         
					               ;0447   80 32 
08AOYU~1.asm(574): error A2062: Missing or unreachable CS
     576				Q0449:             MOV   A,4MOV        
					               ;0449   E5 42 
08AOYU~1.asm(575): error A2062: Missing or unreachable CS
     577				                   XRL   A,#1FH        
					               ;044B   64 1F 
08AOYU~1.asm(576): error A2105: Expected: instruction or directive
     578 02C2  74 00			                   JZ    Q04JZ         
					               ;044D   60 03 
08AOYU~1.asm(577): error A2009: Symbol not defined: Q04JZ
     579				                   LJMP  Q0500         
					               ;044F   02 05 00 
08AOYU~1.asm(578): error A2105: Expected: instruction or directive
     580				;======================================
					==================================== 
     581 02C4  C7 06 0042 U 023A	Q0452:             MOV   42HMOV1H      
					               ;0452   75 42 01 
08AOYU~1.asm(580): error A2062: Missing or unreachable CS
     582 02CA  C7 06 002E U 023C	                   MOV   2EHMOV1H      
					               ;0455   75 2E 01 
08AOYU~1.asm(581): error A2009: Symbol not defined: MOV1H
     583 02D0  C7 06 0043 U 0243	                   MOV   43HMOV3H      
					               ;0458   75 43 03 
08AOYU~1.asm(582): error A2009: Symbol not defined: MOV3H
     584 02D6  C3			                   RET      RET        
					               ;045B   22 
08AOYU~1.asm(583): error A2009: Symbol not defined: RET
     585				;======================================
					==================================== 
     586				Q045C:             MOV   A,RMOV        
					               ;045C   EF 
08AOYU~1.asm(585): error A2062: Missing or unreachable CS
     587				                   CPL   A             
					               ;045D   F4 
08AOYU~1.asm(586): error A2105: Expected: instruction or directive
     588 02D7  75 00			                   JNZ   Q04JNZ        
					               ;045E   70 03 
08AOYU~1.asm(587): error A2009: Symbol not defined: Q04JNZ
     589				                   LJMP  Q0500         
					               ;0460   02 05 00 
08AOYU~1.asm(588): error A2105: Expected: instruction or directive
     590				;======================================
					==================================== 
     591				Q0463:             MOV   A,5MOV        
					               ;0463   E5 54 
08AOYU~1.asm(590): error A2062: Missing or unreachable CS
     592				                   XRL   A,#02H        
					               ;0465   64 02 
08AOYU~1.asm(591): error A2105: Expected: instruction or directive
     593 02D9  75 00			                   JNZ   Q04JNZ        
					               ;0467   70 3B 
08AOYU~1.asm(592): error A2009: Symbol not defined: Q04JNZ
Microsoft (R) Macro Assembler Version 5.00                  6/22/7                                                             Page     1-33


     594				                   MOV   A,4MOV        
					               ;0469   E5 45 
08AOYU~1.asm(593): error A2009: Symbol not defined: A
     595				                   XRL   A,3BH         
					               ;046B   65 3B 
08AOYU~1.asm(594): error A2105: Expected: instruction or directive
     596 02DB  74 00			                   JZ    Q04JZ         
					               ;046D   60 12 
08AOYU~1.asm(595): error A2009: Symbol not defined: Q04JZ
     597 02DD  FF 06 0045 U		                   INC   45HINC        
					               ;046F   05 45 
08AOYU~1.asm(596): error A2009: Symbol not defined: INC
     598 02E1  FF 0E 002E U		                   DEC   2EHDEC        
					               ;0471   15 2E 
08AOYU~1.asm(597): error A2009: Symbol not defined: DEC
     599				                   MOV   A,2MOV        
					               ;0473   E5 2E 
08AOYU~1.asm(598): error A2009: Symbol not defined: A
     600				                   CPL   A             
					               ;0475   F4 
08AOYU~1.asm(599): error A2105: Expected: instruction or directive
     601 02E5  74 00			                   JZ    Q04JZ         
					               ;0476   60 03 
08AOYU~1.asm(600): error A2009: Symbol not defined: Q04JZ
     602				                   LJMP  Q0500         
					               ;0478   02 05 00 
08AOYU~1.asm(601): error A2105: Expected: instruction or directive
     603				;======================================
					==================================== 
     604 02E7  C7 06 002E U 008C	Q047B:             MOV   2EHMOV9H      
					               ;047B   75 2E 09 
08AOYU~1.asm(603): error A2062: Missing or unreachable CS
     605 02ED  FF 0E 0043 U		                   DEC   43HDEC        
					               ;047E   15 43 
08AOYU~1.asm(604): error A2009: Symbol not defined: DEC
     606 02F1  C3			                   RET      RET        
					               ;0480   22 
08AOYU~1.asm(605): error A2009: Symbol not defined: RET
     607				;======================================
					==================================== 
     608				Q0481:             MOV   A,4MOV        
					               ;0481   E5 45 
08AOYU~1.asm(607): error A2062: Missing or unreachable CS
     609				                   XRL   A,3BH         
					               ;0483   65 3B 
08AOYU~1.asm(608): error A2105: Expected: instruction or directive
     610 02F2  75 00			                   JNZ   Q05JNZ        
					               ;0485   70 79 
08AOYU~1.asm(609): error A2009: Symbol not defined: Q05JNZ
     611				                   MOV   A,3MOV        
					               ;0487   E5 3B 
08AOYU~1.asm(610): error A2009: Symbol not defined: A
     612				                   CJNE  A,#1CH,Q0494  
					               ;0489   B4 1C 08 
08AOYU~1.asm(611): error A2105: Expected: instruction or directive
Microsoft (R) Macro Assembler Version 5.00                  6/22/7                                                             Page     1-34


     613 02F4  C7 06 0045 U 026C	                   MOV   45HMOV1H      
					               ;048C   75 45 01 
08AOYU~1.asm(612): error A2009: Symbol not defined: MOV1H
     614 02FA  C7 06 002E U 0272	                   MOV   2EHMOV8H      
					               ;048F   75 2E 08 
08AOYU~1.asm(613): error A2009: Symbol not defined: MOV8H
     615				                   SJMP  Q04A0         
					               ;0492   80 0C 
08AOYU~1.asm(614): error A2105: Expected: instruction or directive
     616				Q0494:             MOV   A,3MOV        
					               ;0494   E5 3B 
08AOYU~1.asm(615): error A2062: Missing or unreachable CS
     617				                   XRL   A,#1DH        
					               ;0496   64 1D 
08AOYU~1.asm(616): error A2105: Expected: instruction or directive
     618 0300  75 00			                   JNZ   Q05JNZ        
					               ;0498   70 66 
08AOYU~1.asm(617): error A2009: Symbol not defined: Q05JNZ
     619 0302  C7 06 0045 U 0274	                   MOV   45HMOV1H      
					               ;049A   75 45 01 
08AOYU~1.asm(618): error A2009: Symbol not defined: MOV1H
     620 0308  C7 06 002E U 00AE	                   MOV   2EHMOV9H      
					               ;049D   75 2E 09 
08AOYU~1.asm(619): error A2009: Symbol not defined: MOV9H
     621 030E  C7 06 0043 U 02B2	Q04A0:             MOV   43HMOV2H      
					               ;04A0   75 43 02 
08AOYU~1.asm(620): error A2062: Missing or unreachable CS
     622 0314  C3			                   RET      RET        
					               ;04A3   22 
08AOYU~1.asm(621): error A2009: Symbol not defined: RET
     623				;======================================
					==================================== 
     624				Q04A4:             MOV   A,5MOV        
					               ;04A4   E5 54 
08AOYU~1.asm(623): error A2062: Missing or unreachable CS
     625				                   XRL   A,#02H        
					               ;04A6   64 02 
08AOYU~1.asm(624): error A2105: Expected: instruction or directive
     626 0315  74 00			                   JZ    Q05JZ         
					               ;04A8   60 56 
08AOYU~1.asm(625): error A2009: Symbol not defined: Q05JZ
     627				                   MOV   A,3MOV        
					               ;04AA   E5 36 
08AOYU~1.asm(626): error A2009: Symbol not defined: A
     628				                   XRL   A,#1EH        
					               ;04AC   64 1E 
08AOYU~1.asm(627): error A2105: Expected: instruction or directive
     629 0317  74 00			                   JZ    Q04JZ         
					               ;04AE   60 13 
08AOYU~1.asm(628): error A2009: Symbol not defined: Q04JZ
     630 0319  FF 06 0036 U		                   INC   36HINC        
					               ;04B0   05 36 
08AOYU~1.asm(629): error A2009: Symbol not defined: INC
Microsoft (R) Macro Assembler Version 5.00                  6/22/7                                                             Page     1-35


     631 031D  C7 06 0045 U 02EC	                   MOV   45HMOVH       
					               ;04B2   85 36 45 
08AOYU~1.asm(630): error A2009: Symbol not defined: MOVH
     632 0323  FF 0E 002E U		                   DEC   2EHDEC        
					               ;04B5   15 2E 
08AOYU~1.asm(631): error A2009: Symbol not defined: DEC
     633				                   MOV   A,2MOV        
					               ;04B7   E5 2E 
08AOYU~1.asm(632): error A2009: Symbol not defined: A
     634				                   CPL   A             
					               ;04B9   F4 
08AOYU~1.asm(633): error A2105: Expected: instruction or directive
     635 0327  75 00			                   JNZ   Q05JNZ        
					               ;04BA   70 44 
08AOYU~1.asm(634): error A2009: Symbol not defined: Q05JNZ
     636 0329  C7 06 002E U 02D4	                   MOV   2EHMOV9H      
					               ;04BC   75 2E 09 
08AOYU~1.asm(635): error A2009: Symbol not defined: MOV9H
     637 032F  FF 0E 0043 U		                   DEC   43HDEC        
					               ;04BF   15 43 
08AOYU~1.asm(636): error A2009: Symbol not defined: DEC
     638				                   SJMP  Q04D1         
					               ;04C1   80 0E 
08AOYU~1.asm(637): error A2105: Expected: instruction or directive
     639				Q04C3:             MOV   A,3MOV        
					               ;04C3   E5 36 
08AOYU~1.asm(638): error A2062: Missing or unreachable CS
     640				                   XRL   A,#1EH        
					               ;04C5   64 1E 
08AOYU~1.asm(639): error A2105: Expected: instruction or directive
     641 0333  75 00			                   JNZ   Q05JNZ        
					               ;04C7   70 37 
08AOYU~1.asm(640): error A2009: Symbol not defined: Q05JNZ
     642 0335  C7 06 0036 U 02C7	                   MOV   36HMOV1H      
					               ;04C9   75 36 01 
08AOYU~1.asm(641): error A2009: Symbol not defined: MOV1H
     643				                   MOV   2EHMOV        
					               ;04CC   F5 2E 
08AOYU~1.asm(642): error A2009: Symbol not defined: MOV
     644 033B  C7 06 0043 U 02DC	                   MOV   43HMOV3H      
					               ;04CE   75 43 03 
08AOYU~1.asm(643): error A2009: Symbol not defined: MOV3H
     645 0341  C7 06 0045 U 02FF	Q04D1:             MOV   45HMOVH       
					               ;04D1   85 36 45 
08AOYU~1.asm(644): error A2062: Missing or unreachable CS
     646 0347  C3			                   RET      RET        
					               ;04D4   22 
08AOYU~1.asm(645): error A2009: Symbol not defined: RET
     647				;======================================
					==================================== 
     648 0348  73 20			Q04D5:             JNB   20HJNBQ0500   
					               ;04D5   30 06 28 
08AOYU~1.asm(647): error A2062: Missing or unreachable CS
     649 034A  FF 0E 002C U		                   DEC   2CHDEC        
Microsoft (R) Macro Assembler Version 5.00                  6/22/7                                                             Page     1-36


					               ;04D8   15 2C 
08AOYU~1.asm(648): error A2009: Symbol not defined: DEC
     650				                   MOV   A,2MOV        
					               ;04DA   E5 2C 
08AOYU~1.asm(649): error A2009: Symbol not defined: A
     651				                   CJNE  A,#0FFH,Q0500 
					               ;04DC   B4 FF 21 
08AOYU~1.asm(650): error A2105: Expected: instruction or directive
     652 034E  C7 06 002C U 02E9	                   MOV   2CHMOV9H      
					               ;04DF   75 2C 09 
08AOYU~1.asm(651): error A2009: Symbol not defined: MOV9H
     653 0354  FF 0E 0021 U		                   DEC   21HDEC        
					               ;04E2   15 21 
08AOYU~1.asm(652): error A2009: Symbol not defined: DEC
     654				                   MOV   A,2MOV        
					               ;04E4   E5 21 
08AOYU~1.asm(653): error A2009: Symbol not defined: A
     655				                   CJNE  A,#0FFH,Q0500 
					               ;04E6   B4 FF 17 
08AOYU~1.asm(654): error A2105: Expected: instruction or directive
     656 0358  C7 06 0021 U 02D4	                   MOV   21HMOV9H      
					               ;04E9   75 21 09 
08AOYU~1.asm(655): error A2009: Symbol not defined: MOV9H
     657 035E  FF 0E 0024 U		                   DEC   24HDEC        
					               ;04EC   15 24 
08AOYU~1.asm(656): error A2009: Symbol not defined: DEC
     658				                   MOV   A,2MOV        
					               ;04EE   E5 24 
08AOYU~1.asm(657): error A2009: Symbol not defined: A
     659				                   CJNE  A,#0FFH,Q0500 
					               ;04F0   B4 FF 0D 
08AOYU~1.asm(658): error A2105: Expected: instruction or directive
     660 0362  C7 06 0024 U 02DB	                   MOV   24HMOV9H      
					               ;04F3   75 24 09 
08AOYU~1.asm(659): error A2009: Symbol not defined: MOV9H
     661 0368  FF 0E 002B U		                   DEC   2BHDEC        
					               ;04F6   15 2B 
08AOYU~1.asm(660): error A2009: Symbol not defined: DEC
     662				                   MOV   A,2MOV        
					               ;04F8   E5 2B 
08AOYU~1.asm(661): error A2009: Symbol not defined: A
     663				                   CJNE  A,#0FFH,Q0500 
					               ;04FA   B4 FF 03 
08AOYU~1.asm(662): error A2105: Expected: instruction or directive
     664 036C  C7 06 002B U 0094	                   MOV   2BHMOV9H      
					               ;04FD   75 2B 09 
08AOYU~1.asm(663): error A2009: Symbol not defined: MOV9H
     665 0372  C3			Q0500:             RET      RET        
					               ;0500   22 
08AOYU~1.asm(664): error A2062: Missing or unreachable CS
     666				;======================================
					==================================== 
     667 0373  72 20			Q0501:             JB    20HJB,Q0507   
					               ;0501   20 06 03 
08AOYU~1.asm(666): error A2062: Missing or unreachable CS
Microsoft (R) Macro Assembler Version 5.00                  6/22/7                                                             Page     1-37


     668				                   LJMP  Q05A6         
					               ;0504   02 05 A6 
08AOYU~1.asm(667): error A2105: Expected: instruction or directive
     669				;======================================
					==================================== 
     670 0375  C7 06 002C U 0297	Q0507:             MOV   2CHMOVH       
					               ;0507   85 32 2C 
08AOYU~1.asm(669): error A2062: Missing or unreachable CS
     671 037B  C7 06 0021 U 0294	                   MOV   21HMOVH       
					               ;050A   85 37 21 
08AOYU~1.asm(670): error A2009: Symbol not defined: MOVH
     672 0381  C7 06 0024 U 00C7	                   MOV   24HMOVH       
					               ;050D   85 40 24 
08AOYU~1.asm(671): error A2009: Symbol not defined: MOVH
     673 0387  C7 06 002B U 0288	                   MOV   2BHMOVH       
					               ;0510   85 3E 2B 
08AOYU~1.asm(672): error A2009: Symbol not defined: MOVH
     674 038D  73 20			Q0513:             JNB   20HJNBQ056F   
					               ;0513   30 06 59 
08AOYU~1.asm(673): error A2062: Missing or unreachable CS
     675				                   CLR   A             
					               ;0516   E4 
08AOYU~1.asm(674): error A2105: Expected: instruction or directive
     676				                   MOV   08HMOV        
					               ;0517   F5 08 
08AOYU~1.asm(675): error A2009: Symbol not defined: MOV
     677 038F  C7 06 0032 U 0283	Q0519:             MOV   32HMOVAH      
					               ;0519   75 32 0A 
08AOYU~1.asm(676): error A2062: Missing or unreachable CS
     678 0395  C7 06 0037 U 0292	                   MOV   37HMOVAH      
					               ;051C   75 37 0A 
08AOYU~1.asm(677): error A2009: Symbol not defined: MOVAH
     679 039B  C7 06 0040 U 0298	                   MOV   40HMOVAH      
					               ;051F   75 40 0A 
08AOYU~1.asm(678): error A2009: Symbol not defined: MOVAH
     680 03A1  C7 06 003E U 0299	                   MOV   3EHMOVAH      
					               ;0522   75 3E 0A 
08AOYU~1.asm(679): error A2009: Symbol not defined: MOVAH
     681 03A7  C7 06 0046 U 02B9	                   MOV   46HMOVH       
					               ;0525   85 2E 46 
08AOYU~1.asm(680): error A2009: Symbol not defined: MOVH
     682 03AD  C7 06 0053 U 02C5	                   MOV   53HMOVH       
					               ;0528   85 43 53 
08AOYU~1.asm(681): error A2009: Symbol not defined: MOVH
     683				                   LCALL Q01CE         
					               ;052B   12 01 CE 
08AOYU~1.asm(682): error A2105: Expected: instruction or directive
     684				                   LCALL Q0989         
					               ;052E   12 09 89 
08AOYU~1.asm(683): error A2105: Expected: instruction or directive
     685 03B3  72 20			                   JB    20HJB,Q0537   
					               ;0531   20 06 03 
08AOYU~1.asm(684): error A2009: Symbol not defined: JB
Microsoft (R) Macro Assembler Version 5.00                  6/22/7                                                             Page     1-38


     686 03B5  C7 06 0008 U 028A	                   MOV   08HMOV3H      
					               ;0534   75 08 33 
08AOYU~1.asm(685): error A2009: Symbol not defined: MOV3H
     687 03BB  FF 06 0008 U		Q0537:             INC   08HINC        
					               ;0537   05 08 
08AOYU~1.asm(686): error A2062: Missing or unreachable CS
     688				                   MOV   A,0MOV        
					               ;0539   E5 08 
08AOYU~1.asm(687): error A2009: Symbol not defined: A
     689				                   CLR   C             
					               ;053B   C3 
08AOYU~1.asm(688): error A2105: Expected: instruction or directive
     690				                   SUBB  A,#12H        
					               ;053C   94 12 
08AOYU~1.asm(689): error A2105: Expected: instruction or directive
     691 03BF  72 00			                   JC    Q05JC         
					               ;053E   40 D9 
08AOYU~1.asm(690): error A2009: Symbol not defined: Q05JC
     692 03C1  73 20			                   JNB   20HJNBQ0513   
					               ;0540   30 06 D0 
08AOYU~1.asm(691): error A2009: Symbol not defined: JNBQ0513
     693				                   CLR   A             
					               ;0543   E4 
08AOYU~1.asm(692): error A2105: Expected: instruction or directive
     694				                   MOV   08HMOV        
					               ;0544   F5 08 
08AOYU~1.asm(693): error A2009: Symbol not defined: MOV
     695				Q0546:             MOV   A,0MOV        
					               ;0546   E5 08 
08AOYU~1.asm(694): error A2062: Missing or unreachable CS
     696				                   CLR   C             
					               ;0548   C3 
08AOYU~1.asm(695): error A2105: Expected: instruction or directive
     697				                   SUBB  A,#12H        
					               ;0549   94 12 
08AOYU~1.asm(696): error A2105: Expected: instruction or directive
     698 03C3  73 00			                   JNC   Q05JNC        
					               ;054B   50 C6 
08AOYU~1.asm(697): error A2009: Symbol not defined: Q05JNC
     699 03C5  C7 06 0032 U 00D2	                   MOV   32HMOVH       
					               ;054D   85 2C 32 
08AOYU~1.asm(698): error A2009: Symbol not defined: MOVH
     700 03CB  C7 06 0037 U 02B5	                   MOV   37HMOVH       
					               ;0550   85 21 37 
08AOYU~1.asm(699): error A2009: Symbol not defined: MOVH
     701 03D1  C7 06 0040 U 02BE	                   MOV   40HMOVH       
					               ;0553   85 24 40 
08AOYU~1.asm(700): error A2009: Symbol not defined: MOVH
     702 03D7  C7 06 003E U 02B6	                   MOV   3EHMOVH       
					               ;0556   85 2B 3E 
08AOYU~1.asm(701): error A2009: Symbol not defined: MOVH
     703 03DD  C7 06 0046 U 02DB	                   MOV   46HMOVH       
					               ;0559   85 2E 46 
08AOYU~1.asm(702): error A2009: Symbol not defined: MOVH
Microsoft (R) Macro Assembler Version 5.00                  6/22/7                                                             Page     1-39


     704 03E3  C7 06 0053 U 02EE	                   MOV   53HMOVH       
					               ;055C   85 43 53 
08AOYU~1.asm(703): error A2009: Symbol not defined: MOVH
     705				                   LCALL Q01CE         
					               ;055F   12 01 CE 
08AOYU~1.asm(704): error A2105: Expected: instruction or directive
     706				                   LCALL Q0989         
					               ;0562   12 09 89 
08AOYU~1.asm(705): error A2105: Expected: instruction or directive
     707 03E9  72 20			                   JB    20HJB,Q056B   
					               ;0565   20 06 03 
08AOYU~1.asm(706): error A2009: Symbol not defined: JB
     708 03EB  C7 06 0008 U 02AC	                   MOV   08HMOV3H      
					               ;0568   75 08 33 
08AOYU~1.asm(707): error A2009: Symbol not defined: MOV3H
     709 03F1  FF 06 0008 U		Q056B:             INC   08HINC        
					               ;056B   05 08 
08AOYU~1.asm(708): error A2062: Missing or unreachable CS
     710				                   SJMP  Q0546         
					               ;056D   80 D7 
08AOYU~1.asm(709): error A2105: Expected: instruction or directive
     711 03F5  73 20			Q056F:             JNB   20HJNBQ05A6   
					               ;056F   30 01 34 
08AOYU~1.asm(710): error A2062: Missing or unreachable CS
     712				                   CLR   20H.1         
					               ;0572   C2 01 
08AOYU~1.asm(711): error A2105: Expected: instruction or directive
     713 03F7  C7 06 0049 U 02C6	                   MOV   49HMOVH       
					               ;0574   85 2D 49 
08AOYU~1.asm(712): error A2009: Symbol not defined: MOVH
     714 03FD  C7 06 0044 U 02E7	                   MOV   44HMOVH       
					               ;0577   85 2A 44 
08AOYU~1.asm(713): error A2009: Symbol not defined: MOVH
     715 0403  C7 06 0050 U 0058	                   MOV   50HMOVH       
					               ;057A   85 30 50 
08AOYU~1.asm(714): error A2009: Symbol not defined: MOVH
     716 0409  C7 06 004A U 0081	                   MOV   4AHMOVH       
					               ;057D   85 2F 4A 
08AOYU~1.asm(715): error A2009: Symbol not defined: MOVH
     717				Q057F:             ORL   A,R2          
					               ;057F   4A 
08AOYU~1.asm(716): error A2062: Missing or unreachable CS
     718 040F  C7 06 003F U 0061	                   MOV   3FHMOVH       
					               ;0580   85 28 3F 
08AOYU~1.asm(717): error A2009: Symbol not defined: MOVH
     719 0415  C7 06 004B U 0059	                   MOV   4BHMOVH       
					               ;0583   85 3C 4B 
08AOYU~1.asm(718): error A2009: Symbol not defined: MOVH
     720 041B  C7 06 0023 U 0051	                   MOV   23HMOVH       
					               ;0586   85 51 23 
08AOYU~1.asm(719): error A2009: Symbol not defined: MOVH
     721 0421  C7 06 0022 U 0055	                   MOV   22HMOVH       
					               ;0589   85 29 22 
08AOYU~1.asm(720): error A2009: Symbol not defined: MOVH
Microsoft (R) Macro Assembler Version 5.00                  6/22/7                                                             Page     1-40


     722 0427  C7 06 0039 U 0069	                   MOV   39HMOVH       
					               ;058C   85 54 39 
08AOYU~1.asm(721): error A2009: Symbol not defined: MOVH
     723 042D  C7 06 0047 U 006C	                   MOV   47HMOVH       
					               ;058F   85 38 47 
08AOYU~1.asm(722): error A2009: Symbol not defined: MOVH
     724 0433  C7 06 0046 U 0064	                   MOV   46HMOVH       
					               ;0592   85 2E 46 
08AOYU~1.asm(723): error A2009: Symbol not defined: MOVH
     725 0439  C7 06 0053 U 0058	                   MOV   53HMOVH       
					               ;0595   85 43 53 
08AOYU~1.asm(724): error A2009: Symbol not defined: MOVH
     726 043F  C7 06 0032 U 0062	                   MOV   32HMOVH       
					               ;0598   85 2C 32 
08AOYU~1.asm(725): error A2009: Symbol not defined: MOVH
     727 0445  C7 06 0037 U 003A	                   MOV   37HMOVH       
					               ;059B   85 21 37 
08AOYU~1.asm(726): error A2009: Symbol not defined: MOVH
     728 044B  C7 06 0040 U 0060	                   MOV   40HMOVH       
					               ;059E   85 24 40 
08AOYU~1.asm(727): error A2009: Symbol not defined: MOVH
     729 0451  C7 06 003E U 0069	                   MOV   3EHMOVH       
					               ;05A1   85 2B 3E 
08AOYU~1.asm(728): error A2009: Symbol not defined: MOVH
     730				                   SETB  TR0           
					               ;05A4   D2 8C 
08AOYU~1.asm(729): error A2105: Expected: instruction or directive
     731 0457  C3			Q05A6:             RET      RET        
					               ;05A6   22 
08AOYU~1.asm(730): error A2062: Missing or unreachable CS
     732				;======================================
					==================================== 
     733				Q05A7:             MOV   R0,MOVH       
					               ;05A7   78 7F 
08AOYU~1.asm(732): error A2062: Missing or unreachable CS
     734				                   CLR   A             
					               ;05A9   E4 
08AOYU~1.asm(733): error A2105: Expected: instruction or directive
     735				Q05AA:             MOV   @R0MOV        
					               ;05AA   F6 
08AOYU~1.asm(734): error A2062: Missing or unreachable CS
     736				                   DJNZ  R0,Q05AA      
					               ;05AB   D8 FD 
08AOYU~1.asm(735): error A2105: Expected: instruction or directive
     737 0458  8B 26 0004 R U		                   MOV   SP,MOVH  SP   
					               ;05AD   75 81 54 
08AOYU~1.asm(736): error A2009: Symbol not defined: MOVH
     738				                   LJMP  Q05EE         
					               ;05B0   02 05 EE 
08AOYU~1.asm(737): error A2105: Expected: instruction or directive
     739				;======================================
					==================================== 
     740				Q05B3:             LJMP  Q0A26         
					               ;05B3   02 0A 26 
08AOYU~1.asm(739): error A2062: Missing or unreachable CS
Microsoft (R) Macro Assembler Version 5.00                                                                               Page     1-41


     741				;======================================
					==================================== 
     742				Q05B6:             CLR   A             
					               ;05B6   E4 
08AOYU~1.asm(741): error A2062: Missing or unreachable CS
     743				                   MOVC  A,@A+DPTR     
					               ;05B7   93 
08AOYU~1.asm(742): error A2105: Expected: instruction or directive
     744 045C  FF 06 0000 U		                   INC   DPTINC        
					               ;05B8   A3 
08AOYU~1.asm(743): error A2009: Symbol not defined: DPTINC
     745				                   MOV   R0,MOV        
					               ;05B9   F8 
08AOYU~1.asm(744): error A2009: Symbol not defined: R0
     746				Q05BA:             CLR   A             
					               ;05BA   E4 
08AOYU~1.asm(745): error A2062: Missing or unreachable CS
     747				                   MOVC  A,@A+DPTR     
					               ;05BB   93 
08AOYU~1.asm(746): error A2105: Expected: instruction or directive
     748 0460  FF 06 0000 U		                   INC   DPTINC        
					               ;05BC   A3 
08AOYU~1.asm(747): error A2009: Symbol not defined: DPTINC
     749 0464  72 00			                   JC    Q05JC         
					               ;05BD   40 03 
08AOYU~1.asm(748): error A2009: Symbol not defined: Q05JC
     750				                   MOV   @R0MOV        
					               ;05BF   F6 
08AOYU~1.asm(749): error A2009: Symbol not defined: @R0MOV
     751				                   SJMP  Q05C3         
					               ;05C0   80 01 
08AOYU~1.asm(750): error A2105: Expected: instruction or directive
     752				Q05C2:             MOVX  @R0,A         
					               ;05C2   F2 
08AOYU~1.asm(751): error A2062: Missing or unreachable CS
     753 0466  FF 06 0000 U		Q05C3:             INC   R0 INC        
					               ;05C3   08 
08AOYU~1.asm(752): error A2062: Missing or unreachable CS
     754				                   DJNZ  R7,Q05BA      
					               ;05C4   DF F4 
08AOYU~1.asm(753): error A2105: Expected: instruction or directive
     755				                   SJMP  Q05F1         
					               ;05C6   80 29 
08AOYU~1.asm(754): error A2105: Expected: instruction or directive
     756				Q05C8:             CLR   A             
					               ;05C8   E4 
08AOYU~1.asm(755): error A2062: Missing or unreachable CS
     757				                   MOVC  A,@A+DPTR     
					               ;05C9   93 
08AOYU~1.asm(756): error A2105: Expected: instruction or directive
     758 046A  FF 06 0000 U		                   INC   DPTINC        
					               ;05CA   A3 
08AOYU~1.asm(757): error A2009: Symbol not defined: DPTINC
Microsoft (R) Macro Assembler Version 5.00                                                                               Page     1-42


     759				                   MOV   R0,MOV        
					               ;05CB   F8 
08AOYU~1.asm(758): error A2009: Symbol not defined: R0
     760				                   ANL   A,#07H        
					               ;05CC   54 07 
08AOYU~1.asm(759): error A2105: Expected: instruction or directive
     761 046E  83 06 0000 U 00		                   ADD   A,#ADD        
					               ;05CE   24 0C 
08AOYU~1.asm(760): error A2009: Symbol not defined: A
     762				                   XCH   A,R0          
					               ;05D0   C8 
08AOYU~1.asm(761): error A2105: Expected: instruction or directive
     763				                   CLR   C             
					               ;05D1   C3 
08AOYU~1.asm(762): error A2105: Expected: instruction or directive
     764				                   RLC   A             
					               ;05D2   33 
08AOYU~1.asm(763): error A2105: Expected: instruction or directive
     765				                   SWAP  A             
					               ;05D3   C4 
08AOYU~1.asm(764): error A2105: Expected: instruction or directive
     766				                   ANL   A,#0FH        
					               ;05D4   54 0F 
08AOYU~1.asm(765): error A2105: Expected: instruction or directive
     767				                   ORL   A,#20H        
					               ;05D6   44 20 
08AOYU~1.asm(766): error A2105: Expected: instruction or directive
     768				                   XCH   A,R0          
					               ;05D8   C8 
08AOYU~1.asm(767): error A2105: Expected: instruction or directive
     769				                   MOVC  A,@A+PC       
					               ;05D9   83 
08AOYU~1.asm(768): error A2105: Expected: instruction or directive
     770 0473  72 00			                   JC    Q05JC         
					               ;05DA   40 04 
08AOYU~1.asm(769): error A2009: Symbol not defined: Q05JC
     771				                   CPL   A             
					               ;05DC   F4 
08AOYU~1.asm(770): error A2105: Expected: instruction or directive
     772				                   ANL   A,@R0         
					               ;05DD   56 
08AOYU~1.asm(771): error A2105: Expected: instruction or directive
     773				                   SJMP  Q05E1         
					               ;05DE   80 01 
08AOYU~1.asm(772): error A2105: Expected: instruction or directive
     774				Q05E0:             ORL   A,@R0         
					               ;05E0   46 
08AOYU~1.asm(773): error A2062: Missing or unreachable CS
     775				Q05E1:             MOV   @R0MOV        
					               ;05E1   F6 
08AOYU~1.asm(774): error A2062: Missing or unreachable CS
     776				                   DJNZ  R7,Q05C8      
					               ;05E2   DF E4 
08AOYU~1.asm(775): error A2105: Expected: instruction or directive
Microsoft (R) Macro Assembler Version 5.00                                                                               Page     1-43


     777				                   SJMP  Q05F1         
					               ;05E4   80 0B 
08AOYU~1.asm(776): error A2105: Expected: instruction or directive
     778				 
     779 0475  FF 06 0000 U		                   INC   A  INC        
					               ;05E8   04 
08AOYU~1.asm(778): error A2009: Symbol not defined: A
     780 0479  FF 06 0000 U		                   INC   R0 INC        
					               ;05E9   08 
08AOYU~1.asm(779): error A2009: Symbol not defined: R0
     781				                   JBC   24H.0,Q062D   
					               ;05EA   10 20 40 
08AOYU~1.asm(780): error A2105: Expected: instruction or directive
     782				                   SJMP  Q057F         
					               ;05ED   80 90 
08AOYU~1.asm(781): error A2105: Expected: instruction or directive
     783 047D  C7 06 0000 U 0086	Q05EE:             MOV   DPTMOV0798H   
					               ;05EE   90 07 98 
08AOYU~1.asm(782): error A2062: Missing or unreachable CS
     784				Q05F1:             CLR   A             
					               ;05F1   E4 
08AOYU~1.asm(783): error A2062: Missing or unreachable CS
     785				                   MOV   R6,MOVH       
					               ;05F2   7E 01 
08AOYU~1.asm(784): error A2009: Symbol not defined: R6
     786				                   MOVC  A,@A+DPTR     
					               ;05F4   93 
08AOYU~1.asm(785): error A2105: Expected: instruction or directive
     787 0483  74 00			                   JZ    Q05JZ         
					               ;05F5   60 BC 
08AOYU~1.asm(786): error A2009: Symbol not defined: Q05JZ
     788 0485  FF 06 0000 U		                   INC   DPTINC        
					               ;05F7   A3 
08AOYU~1.asm(787): error A2009: Symbol not defined: DPTINC
     789				                   MOV   R7,MOV        
					               ;05F8   FF 
08AOYU~1.asm(788): error A2009: Symbol not defined: R7
     790				                   ANL   A,#3FH        
					               ;05F9   54 3F 
08AOYU~1.asm(789): error A2105: Expected: instruction or directive
     791 0489  73 00			                   JNB   ACCJNBQ0607   
					               ;05FB   30 E5 09 
08AOYU~1.asm(790): error A2009: Symbol not defined: ACCJNBQ0607
     792				                   ANL   A,#1FH        
					               ;05FE   54 1F 
08AOYU~1.asm(791): error A2105: Expected: instruction or directive
     793				                   MOV   R6,MOV        
					               ;0600   FE 
08AOYU~1.asm(792): error A2009: Symbol not defined: R6
     794				                   CLR   A             
					               ;0601   E4 
08AOYU~1.asm(793): error A2105: Expected: instruction or directive
     795				                   MOVC  A,@A+DPTR     
					               ;0602   93 
08AOYU~1.asm(794): error A2105: Expected: instruction or directive
Microsoft (R) Macro Assembler Version 5.00                                                                               Page     1-44


     796 048B  FF 06 0000 U		                   INC   DPTINC        
					               ;0603   A3 
08AOYU~1.asm(795): error A2009: Symbol not defined: DPTINC
     797 048F  74 00			                   JZ    Q06JZ         
					               ;0604   60 01 
08AOYU~1.asm(796): error A2009: Symbol not defined: Q06JZ
     798 0491  FF 06 0000 U		                   INC   R6 INC        
					               ;0606   0E 
08AOYU~1.asm(797): error A2009: Symbol not defined: R6
     799				Q0607:             XCH   A,R7          
					               ;0607   CF 
08AOYU~1.asm(798): error A2062: Missing or unreachable CS
     800				                   ANL   A,#0C0H       
					               ;0608   54 C0 
08AOYU~1.asm(799): error A2105: Expected: instruction or directive
     801				                   ADD   A,AADD        
					               ;060A   25 E0 
08AOYU~1.asm(800): error A2009: Symbol not defined: A
     802 0495  74 00			                   JZ    Q05JZ         
					               ;060C   60 A8 
08AOYU~1.asm(801): error A2009: Symbol not defined: Q05JZ
     803 0497  72 00			                   JC    Q05JC         
					               ;060E   40 B8 
08AOYU~1.asm(802): error A2009: Symbol not defined: Q05JC
     804				                   CLR   A             
					               ;0610   E4 
08AOYU~1.asm(803): error A2105: Expected: instruction or directive
     805				                   MOVC  A,@A+DPTR     
					               ;0611   93 
08AOYU~1.asm(804): error A2105: Expected: instruction or directive
     806 0499  FF 06 0000 U		                   INC   DPTINC        
					               ;0612   A3 
08AOYU~1.asm(805): error A2009: Symbol not defined: DPTINC
     807				                   MOV   R2,MOV        
					               ;0613   FA 
08AOYU~1.asm(806): error A2009: Symbol not defined: R2
     808				                   CLR   A             
					               ;0614   E4 
08AOYU~1.asm(807): error A2105: Expected: instruction or directive
     809				                   MOVC  A,@A+DPTR     
					               ;0615   93 
08AOYU~1.asm(808): error A2105: Expected: instruction or directive
     810 049D  FF 06 0000 U		                   INC   DPTINC        
					               ;0616   A3 
08AOYU~1.asm(809): error A2009: Symbol not defined: DPTINC
     811				                   MOV   R0,MOV        
					               ;0617   F8 
08AOYU~1.asm(810): error A2009: Symbol not defined: R0
     812				Q0618:             CLR   A             
					               ;0618   E4 
08AOYU~1.asm(811): error A2062: Missing or unreachable CS
     813				                   MOVC  A,@A+DPTR     
					               ;0619   93 
08AOYU~1.asm(812): error A2105: Expected: instruction or directive
Microsoft (R) Macro Assembler Version 5.00                                                                               Page     1-45


     814 04A1  FF 06 0000 U		                   INC   DPTINC        
					               ;061A   A3 
08AOYU~1.asm(813): error A2009: Symbol not defined: DPTINC
     815				                   XCH   A,R0          
					               ;061B   C8 
08AOYU~1.asm(814): error A2105: Expected: instruction or directive
     816				                   XCH   A,DPL         
					               ;061C   C5 82 
08AOYU~1.asm(815): error A2105: Expected: instruction or directive
     817				                   XCH   A,R0          
					               ;061E   C8 
08AOYU~1.asm(816): error A2105: Expected: instruction or directive
     818				                   XCH   A,R2          
					               ;061F   CA 
08AOYU~1.asm(817): error A2105: Expected: instruction or directive
     819				                   XCH   A,DPH         
					               ;0620   C5 83 
08AOYU~1.asm(818): error A2105: Expected: instruction or directive
     820				                   XCH   A,R2          
					               ;0622   CA 
08AOYU~1.asm(819): error A2105: Expected: instruction or directive
     821				                   MOVX  @DPTR,A       
					               ;0623   F0 
08AOYU~1.asm(820): error A2105: Expected: instruction or directive
     822 04A5  FF 06 0000 U		                   INC   DPTINC        
					               ;0624   A3 
08AOYU~1.asm(821): error A2009: Symbol not defined: DPTINC
     823				                   XCH   A,R0          
					               ;0625   C8 
08AOYU~1.asm(822): error A2105: Expected: instruction or directive
     824				                   XCH   A,DPL         
					               ;0626   C5 82 
08AOYU~1.asm(823): error A2105: Expected: instruction or directive
     825				                   XCH   A,R0          
					               ;0628   C8 
08AOYU~1.asm(824): error A2105: Expected: instruction or directive
     826				                   XCH   A,R2          
					               ;0629   CA 
08AOYU~1.asm(825): error A2105: Expected: instruction or directive
     827				                   XCH   A,DPH         
					               ;062A   C5 83 
08AOYU~1.asm(826): error A2105: Expected: instruction or directive
     828				                   XCH   A,R2          
					               ;062C   CA 
08AOYU~1.asm(827): error A2105: Expected: instruction or directive
     829				Q062D:             DJNZ  R7,Q0618      
					               ;062D   DF E9 
08AOYU~1.asm(828): error A2062: Missing or unreachable CS
     830				                   DJNZ  R6,Q0618      
					               ;062F   DE E7 
08AOYU~1.asm(829): error A2105: Expected: instruction or directive
     831				                   SJMP  Q05F1         
					               ;0631   80 BE 
08AOYU~1.asm(830): error A2105: Expected: instruction or directive
Microsoft (R) Macro Assembler Version 5.00                                                                               Page     1-46


     832 04A9  C7 06 0035 U 004D	Q0633:             MOV   35HMOVH       
					               ;0633   85 28 35 
08AOYU~1.asm(831): error A2062: Missing or unreachable CS
     833 04AF  C7 06 0027 U 005D	                   MOV   27HMOVH       
					               ;0636   85 3C 27 
08AOYU~1.asm(832): error A2009: Symbol not defined: MOVH
     834 04B5  C7 06 0031 U 004E	                   MOV   31HMOVH       
					               ;0639   85 51 31 
08AOYU~1.asm(833): error A2009: Symbol not defined: MOVH
     835 04BB  C7 06 0034 U 005D	                   MOV   34HMOVH       
					               ;063C   85 29 34 
08AOYU~1.asm(834): error A2009: Symbol not defined: MOVH
     836 04C1  C7 06 0025 U 0050	                   MOV   25HMOV0H      
					               ;063F   75 25 00 
08AOYU~1.asm(835): error A2009: Symbol not defined: MOV0H
     837 04C7  C7 06 0026 U 004D	                   MOV   26HMOVH       
					               ;0642   85 28 26 
08AOYU~1.asm(836): error A2009: Symbol not defined: MOVH
     838				                   MOV   A,3MOV        
					               ;0645   E5 3C 
08AOYU~1.asm(837): error A2009: Symbol not defined: A
     839				                   SWAP  A             
					               ;0647   C4 
08AOYU~1.asm(838): error A2105: Expected: instruction or directive
     840				                   ANL   A,#0F0H       
					               ;0648   54 F0 
08AOYU~1.asm(839): error A2105: Expected: instruction or directive
     841				                   MOV   3CHMOV        
					               ;064A   F5 3C 
08AOYU~1.asm(840): error A2009: Symbol not defined: MOV
     842				                   ANL   3CH,#0F0H     
					               ;064C   53 3C F0 
08AOYU~1.asm(841): error A2105: Expected: instruction or directive
     843				                   MOV   A,3MOV        
					               ;064F   E5 3C 
08AOYU~1.asm(842): error A2009: Symbol not defined: A
     844 04CD  81 06 0000 U 0186	                   ADD   A,2ADD        
					               ;0651   25 26 
08AOYU~1.asm(843): error A2009: Symbol not defined: A
     845				                   MOV   26HMOV        
					               ;0653   F5 26 
08AOYU~1.asm(844): error A2009: Symbol not defined: MOV
     846				                   CLR   A             
					               ;0655   E4 
08AOYU~1.asm(845): error A2105: Expected: instruction or directive
     847				                   ADDC  A,25H         
					               ;0656   35 25 
08AOYU~1.asm(846): error A2105: Expected: instruction or directive
     848				                   MOV   25HMOV        
					               ;0658   F5 25 
08AOYU~1.asm(847): error A2009: Symbol not defined: MOV
     849				                   MOV   A,2MOV        
					               ;065A   E5 26 
08AOYU~1.asm(848): error A2009: Symbol not defined: A
Microsoft (R) Macro Assembler Version 5.00                                                                               Page     1-47


     850 04D3  C7 06 0026 U 0052	                   MOV   26HMOV0H      
					               ;065C   75 26 00 
08AOYU~1.asm(849): error A2009: Symbol not defined: MOV0H
     851				                   MOV   25HMOV        
					               ;065F   F5 25 
08AOYU~1.asm(850): error A2009: Symbol not defined: MOV
     852				                   MOV   A,5MOV        
					               ;0661   E5 51 
08AOYU~1.asm(851): error A2009: Symbol not defined: A
     853 04D9  81 06 0000 U 0186	                   ADD   A,2ADD        
					               ;0663   25 26 
08AOYU~1.asm(852): error A2009: Symbol not defined: A
     854				                   MOV   26HMOV        
					               ;0665   F5 26 
08AOYU~1.asm(853): error A2009: Symbol not defined: MOV
     855				                   CLR   A             
					               ;0667   E4 
08AOYU~1.asm(854): error A2105: Expected: instruction or directive
     856				                   ADDC  A,25H         
					               ;0668   35 25 
08AOYU~1.asm(855): error A2105: Expected: instruction or directive
     857				                   MOV   25HMOV        
					               ;066A   F5 25 
08AOYU~1.asm(856): error A2009: Symbol not defined: MOV
     858				                   MOV   A,2MOV        
					               ;066C   E5 29 
08AOYU~1.asm(857): error A2009: Symbol not defined: A
     859				                   SWAP  A             
					               ;066E   C4 
08AOYU~1.asm(858): error A2105: Expected: instruction or directive
     860				                   ANL   A,#0F0H       
					               ;066F   54 F0 
08AOYU~1.asm(859): error A2105: Expected: instruction or directive
     861				                   MOV   29HMOV        
					               ;0671   F5 29 
08AOYU~1.asm(860): error A2009: Symbol not defined: MOV
     862				                   ANL   29H,#0F0H     
					               ;0673   53 29 F0 
08AOYU~1.asm(861): error A2105: Expected: instruction or directive
     863				                   MOV   A,2MOV        
					               ;0676   E5 29 
08AOYU~1.asm(862): error A2009: Symbol not defined: A
     864 04DF  81 06 0000 U 0186	                   ADD   A,2ADD        
					               ;0678   25 26 
08AOYU~1.asm(863): error A2009: Symbol not defined: A
     865				                   MOV   26HMOV        
					               ;067A   F5 26 
08AOYU~1.asm(864): error A2009: Symbol not defined: MOV
     866				                   CLR   A             
					               ;067C   E4 
08AOYU~1.asm(865): error A2105: Expected: instruction or directive
     867				                   ADDC  A,25H         
					               ;067D   35 25 
08AOYU~1.asm(866): error A2105: Expected: instruction or directive
Microsoft (R) Macro Assembler Version 5.00                                                                               Page     1-48


     868				                   MOV   25HMOV        
					               ;067F   F5 25 
08AOYU~1.asm(867): error A2009: Symbol not defined: MOV
     869				                   MOV   4CHMOV        
					               ;0681   F5 4C 
08AOYU~1.asm(868): error A2009: Symbol not defined: MOV
     870 04E5  C7 06 004D U 0042	                   MOV   4DHMOV0H      
					               ;0683   75 4D 00 
08AOYU~1.asm(869): error A2009: Symbol not defined: MOV0H
     871				                   MOV   A,4MOV        
					               ;0686   E5 4C 
08AOYU~1.asm(870): error A2009: Symbol not defined: A
     872				                   MOV   4DHMOV        
					               ;0688   F5 4D 
08AOYU~1.asm(871): error A2009: Symbol not defined: MOV
     873 04EB  C7 06 004C U 0067	                   MOV   4CHMOV0H      
					               ;068A   75 4C 00 
08AOYU~1.asm(872): error A2009: Symbol not defined: MOV0H
     874 04F1  C7 06 004E U 0074	                   MOV   4EHMOV0H      
					               ;068D   75 4E 00 
08AOYU~1.asm(873): error A2009: Symbol not defined: MOV0H
     875 04F7  C7 06 004F U 0067	                   MOV   4FHMOVH       
					               ;0690   85 26 4F 
08AOYU~1.asm(874): error A2009: Symbol not defined: MOVH
     876				                   MOV   A,4MOV        
					               ;0693   E5 4F 
08AOYU~1.asm(875): error A2009: Symbol not defined: A
     877 04FD  C7 06 004F U 0060	                   MOV   4FHMOV0H      
					               ;0695   75 4F 00 
08AOYU~1.asm(876): error A2009: Symbol not defined: MOV0H
     878				                   MOV   4EHMOV        
					               ;0698   F5 4E 
08AOYU~1.asm(877): error A2009: Symbol not defined: MOV
     879				                   MOV   A,4MOV        
					               ;069A   E5 4D 
08AOYU~1.asm(878): error A2009: Symbol not defined: A
     880 0503  81 06 0000 U 024E	                   ADD   A,4ADD        
					               ;069C   25 4F 
08AOYU~1.asm(879): error A2009: Symbol not defined: A
     881				                   MOV   26HMOV        
					               ;069E   F5 26 
08AOYU~1.asm(880): error A2009: Symbol not defined: MOV
     882				                   MOV   A,4MOV        
					               ;06A0   E5 4C 
08AOYU~1.asm(881): error A2009: Symbol not defined: A
     883				                   ADDC  A,4EH         
					               ;06A2   35 4E 
08AOYU~1.asm(882): error A2105: Expected: instruction or directive
     884				                   MOV   25HMOV        
					               ;06A4   F5 25 
08AOYU~1.asm(883): error A2009: Symbol not defined: MOV
     885 0509  C7 06 0028 U 006C	                   MOV   28HMOVH       
					               ;06A6   85 35 28 
08AOYU~1.asm(884): error A2009: Symbol not defined: MOVH
Microsoft (R) Macro Assembler Version 5.00                                                                               Page     1-49


     886 050F  C7 06 003C U 007C	                   MOV   3CHMOVH       
					               ;06A9   85 27 3C 
08AOYU~1.asm(885): error A2009: Symbol not defined: MOVH
     887 0515  C7 06 0051 U 0074	                   MOV   51HMOVH       
					               ;06AC   85 31 51 
08AOYU~1.asm(886): error A2009: Symbol not defined: MOVH
     888 051B  C7 06 0029 U 007C	                   MOV   29HMOVH       
					               ;06AF   85 34 29 
08AOYU~1.asm(887): error A2009: Symbol not defined: MOVH
     889 0521  C3			                   RET      RET        
					               ;06B2   22 
08AOYU~1.asm(888): error A2009: Symbol not defined: RET
     890				;======================================
					==================================== 
     891 0522  FF 06 0033 U		Q06B3:             INC   33HINC        
					               ;06B3   05 33 
08AOYU~1.asm(890): error A2062: Missing or unreachable CS
     892				                   MOV   A,3MOV        
					               ;06B5   E5 33 
08AOYU~1.asm(891): error A2009: Symbol not defined: A
     893				                   CJNE  A,#01H,Q06C0  
					               ;06B7   B4 01 06 
08AOYU~1.asm(892): error A2105: Expected: instruction or directive
     894				                   SETB  20H.5         
					               ;06BA   D2 05 
08AOYU~1.asm(893): error A2105: Expected: instruction or directive
     895				                   CLR   20H.0         
					               ;06BC   C2 00 
08AOYU~1.asm(894): error A2105: Expected: instruction or directive
     896				                   SJMP  Q06C9         
					               ;06BE   80 09 
08AOYU~1.asm(895): error A2105: Expected: instruction or directive
     897				Q06C0:             MOV   A,3MOV        
					               ;06C0   E5 33 
08AOYU~1.asm(896): error A2062: Missing or unreachable CS
     898				                   CJNE  A,#02H,Q06CD  
					               ;06C2   B4 02 08 
08AOYU~1.asm(897): error A2105: Expected: instruction or directive
     899				                   CLR   20H.5         
					               ;06C5   C2 05 
08AOYU~1.asm(898): error A2105: Expected: instruction or directive
     900				                   SETB  20H.0         
					               ;06C7   D2 00 
08AOYU~1.asm(899): error A2105: Expected: instruction or directive
     901				Q06C9:             CLR   20H.4         
					               ;06C9   C2 04 
08AOYU~1.asm(900): error A2062: Missing or unreachable CS
     902				                   SJMP  Q06D8         
					               ;06CB   80 0B 
08AOYU~1.asm(901): error A2105: Expected: instruction or directive
     903				Q06CD:             MOV   A,3MOV        
					               ;06CD   E5 33 
08AOYU~1.asm(902): error A2062: Missing or unreachable CS
Microsoft (R) Macro Assembler Version 5.00                                                                               Page     1-50


     904				                   CJNE  A,#03H,Q06DC  
					               ;06CF   B4 03 0A 
08AOYU~1.asm(903): error A2105: Expected: instruction or directive
     905				                   CLR   20H.5         
					               ;06D2   C2 05 
08AOYU~1.asm(904): error A2105: Expected: instruction or directive
     906				                   CLR   20H.0         
					               ;06D4   C2 00 
08AOYU~1.asm(905): error A2105: Expected: instruction or directive
     907				                   SETB  20H.4         
					               ;06D6   D2 04 
08AOYU~1.asm(906): error A2105: Expected: instruction or directive
     908				Q06D8:             CLR   20H.3         
					               ;06D8   C2 03 
08AOYU~1.asm(907): error A2062: Missing or unreachable CS
     909				                   SJMP  Q06E9         
					               ;06DA   80 0D 
08AOYU~1.asm(908): error A2105: Expected: instruction or directive
     910				Q06DC:             MOV   A,3MOV        
					               ;06DC   E5 33 
08AOYU~1.asm(909): error A2062: Missing or unreachable CS
     911				                   CJNE  A,#04H,Q06ED  
					               ;06DE   B4 04 0C 
08AOYU~1.asm(910): error A2105: Expected: instruction or directive
     912				                   CLR   20H.5         
					               ;06E1   C2 05 
08AOYU~1.asm(911): error A2105: Expected: instruction or directive
     913				                   CLR   20H.0         
					               ;06E3   C2 00 
08AOYU~1.asm(912): error A2105: Expected: instruction or directive
     914				                   CLR   20H.4         
					               ;06E5   C2 04 
08AOYU~1.asm(913): error A2105: Expected: instruction or directive
     915				                   SETB  20H.3         
					               ;06E7   D2 03 
08AOYU~1.asm(914): error A2105: Expected: instruction or directive
     916				Q06E9:             CLR   20H.2         
					               ;06E9   C2 02 
08AOYU~1.asm(915): error A2062: Missing or unreachable CS
     917				                   SJMP  Q06FC         
					               ;06EB   80 0F 
08AOYU~1.asm(916): error A2105: Expected: instruction or directive
     918				Q06ED:             MOV   A,3MOV        
					               ;06ED   E5 33 
08AOYU~1.asm(917): error A2062: Missing or unreachable CS
     919				                   CJNE  A,#05H,Q0701  
					               ;06EF   B4 05 0F 
08AOYU~1.asm(918): error A2105: Expected: instruction or directive
     920				                   CLR   20H.5         
					               ;06F2   C2 05 
08AOYU~1.asm(919): error A2105: Expected: instruction or directive
     921				                   CLR   20H.0         
					               ;06F4   C2 00 
08AOYU~1.asm(920): error A2105: Expected: instruction or directive
Microsoft (R) Macro Assembler Version 5.00                                                                               Page     1-51


     922				                   CLR   20H.4         
					               ;06F6   C2 04 
08AOYU~1.asm(921): error A2105: Expected: instruction or directive
     923				                   CLR   20H.3         
					               ;06F8   C2 03 
08AOYU~1.asm(922): error A2105: Expected: instruction or directive
     924				                   SETB  20H.2         
					               ;06FA   D2 02 
08AOYU~1.asm(923): error A2105: Expected: instruction or directive
     925				Q06FC:             CLR   20H.6         
					               ;06FC   C2 06 
08AOYU~1.asm(924): error A2062: Missing or unreachable CS
     926				                   CLR   20H.1         
					               ;06FE   C2 01 
08AOYU~1.asm(925): error A2105: Expected: instruction or directive
     927 0526  C3			                   RET      RET        
					               ;0700   22 
08AOYU~1.asm(926): error A2009: Symbol not defined: RET
     928				;======================================
					==================================== 
     929				Q0701:             MOV   A,3MOV        
					               ;0701   E5 33 
08AOYU~1.asm(928): error A2062: Missing or unreachable CS
     930				                   CJNE  A,#06H,Q0715  
					               ;0703   B4 06 0F 
08AOYU~1.asm(929): error A2105: Expected: instruction or directive
     931				                   CLR   20H.5         
					               ;0706   C2 05 
08AOYU~1.asm(930): error A2105: Expected: instruction or directive
     932				                   CLR   20H.0         
					               ;0708   C2 00 
08AOYU~1.asm(931): error A2105: Expected: instruction or directive
     933				                   CLR   20H.4         
					               ;070A   C2 04 
08AOYU~1.asm(932): error A2105: Expected: instruction or directive
     934				                   CLR   20H.3         
					               ;070C   C2 03 
08AOYU~1.asm(933): error A2105: Expected: instruction or directive
     935				                   CLR   20H.2         
					               ;070E   C2 02 
08AOYU~1.asm(934): error A2105: Expected: instruction or directive
     936				                   SETB  20H.6         
					               ;0710   D2 06 
08AOYU~1.asm(935): error A2105: Expected: instruction or directive
     937				                   CLR   20H.1         
					               ;0712   C2 01 
08AOYU~1.asm(936): error A2105: Expected: instruction or directive
     938 0527  C3			                   RET      RET        
					               ;0714   22 
08AOYU~1.asm(937): error A2009: Symbol not defined: RET
     939				;======================================
					==================================== 
     940				Q0715:             MOV   A,3MOV        
					               ;0715   E5 33 
08AOYU~1.asm(939): error A2062: Missing or unreachable CS
Microsoft (R) Macro Assembler Version 5.00                                                                               Page     1-52


     941				                   CJNE  A,#07H,Q072B  
					               ;0717   B4 07 11 
08AOYU~1.asm(940): error A2105: Expected: instruction or directive
     942				                   CLR   A             
					               ;071A   E4 
08AOYU~1.asm(941): error A2105: Expected: instruction or directive
     943				                   MOV   33HMOV        
					               ;071B   F5 33 
08AOYU~1.asm(942): error A2009: Symbol not defined: MOV
     944				                   CLR   20H.5         
					               ;071D   C2 05 
08AOYU~1.asm(943): error A2105: Expected: instruction or directive
     945				                   CLR   20H.0         
					               ;071F   C2 00 
08AOYU~1.asm(944): error A2105: Expected: instruction or directive
     946				                   CLR   20H.4         
					               ;0721   C2 04 
08AOYU~1.asm(945): error A2105: Expected: instruction or directive
     947				                   CLR   20H.3         
					               ;0723   C2 03 
08AOYU~1.asm(946): error A2105: Expected: instruction or directive
     948				                   CLR   20H.2         
					               ;0725   C2 02 
08AOYU~1.asm(947): error A2105: Expected: instruction or directive
     949				                   CLR   20H.6         
					               ;0727   C2 06 
08AOYU~1.asm(948): error A2105: Expected: instruction or directive
     950				                   SETB  20H.1         
					               ;0729   D2 01 
08AOYU~1.asm(949): error A2105: Expected: instruction or directive
     951 0528  C3			Q072B:             RET      RET        
					               ;072B   22 
08AOYU~1.asm(950): error A2062: Missing or unreachable CS
     952				;======================================
					==================================== 
     953 0529  73 20			Q072C:             JNB   20HJNBQ0797   
					               ;072C   30 04 68 
08AOYU~1.asm(952): error A2062: Missing or unreachable CS
     954 052B  C7 06 0029 U 005E	                   MOV   29HMOVH       
					               ;072F   85 22 29 
08AOYU~1.asm(953): error A2009: Symbol not defined: MOVH
     955 0531  C7 06 0051 U 004B	                   MOV   51HMOVH       
					               ;0732   85 23 51 
08AOYU~1.asm(954): error A2009: Symbol not defined: MOVH
     956 0537  C7 06 003C U 0059	                   MOV   3CHMOVH       
					               ;0735   85 4B 3C 
08AOYU~1.asm(955): error A2009: Symbol not defined: MOVH
     957 053D  C7 06 0028 U 0067	                   MOV   28HMOVH       
					               ;0738   85 3F 28 
08AOYU~1.asm(956): error A2009: Symbol not defined: MOVH
     958 0543  73 20			Q073B:             JNB   20HJNBQ0797   
					               ;073B   30 04 59 
08AOYU~1.asm(957): error A2062: Missing or unreachable CS
Microsoft (R) Macro Assembler Version 5.00                                                                               Page     1-53


     959				                   CLR   A             
					               ;073E   E4 
08AOYU~1.asm(958): error A2105: Expected: instruction or directive
     960				                   MOV   08HMOV        
					               ;073F   F5 08 
08AOYU~1.asm(959): error A2009: Symbol not defined: MOV
     961 0545  C7 06 0022 U 004F	Q0741:             MOV   22HMOVAH      
					               ;0741   75 22 0A 
08AOYU~1.asm(960): error A2062: Missing or unreachable CS
     962 054B  C7 06 0023 U 0053	                   MOV   23HMOVAH      
					               ;0744   75 23 0A 
08AOYU~1.asm(961): error A2009: Symbol not defined: MOVAH
     963 0551  C7 06 004B U 0053	                   MOV   4BHMOVAH      
					               ;0747   75 4B 0A 
08AOYU~1.asm(962): error A2009: Symbol not defined: MOVAH
     964 0557  C7 06 003F U 0075	                   MOV   3FHMOVAH      
					               ;074A   75 3F 0A 
08AOYU~1.asm(963): error A2009: Symbol not defined: MOVAH
     965 055D  C7 06 0049 U 0072	                   MOV   49HMOVH       
					               ;074D   85 2D 49 
08AOYU~1.asm(964): error A2009: Symbol not defined: MOVH
     966 0563  C7 06 0044 U 005C	                   MOV   44HMOVH       
					               ;0750   85 2A 44 
08AOYU~1.asm(965): error A2009: Symbol not defined: MOVH
     967				                   LCALL Q01CE         
					               ;0753   12 01 CE 
08AOYU~1.asm(966): error A2105: Expected: instruction or directive
     968				                   LCALL Q0989         
					               ;0756   12 09 89 
08AOYU~1.asm(967): error A2105: Expected: instruction or directive
     969 0569  72 20			                   JB    20HJB,Q075F   
					               ;0759   20 04 03 
08AOYU~1.asm(968): error A2009: Symbol not defined: JB
     970 056B  C7 06 0008 U 005D	                   MOV   08HMOV3H      
					               ;075C   75 08 33 
08AOYU~1.asm(969): error A2009: Symbol not defined: MOV3H
     971 0571  FF 06 0008 U		Q075F:             INC   08HINC        
					               ;075F   05 08 
08AOYU~1.asm(970): error A2062: Missing or unreachable CS
     972				                   MOV   A,0MOV        
					               ;0761   E5 08 
08AOYU~1.asm(971): error A2009: Symbol not defined: A
     973				                   CLR   C             
					               ;0763   C3 
08AOYU~1.asm(972): error A2105: Expected: instruction or directive
     974				                   SUBB  A,#12H        
					               ;0764   94 12 
08AOYU~1.asm(973): error A2105: Expected: instruction or directive
     975 0575  72 00			                   JC    Q07JC         
					               ;0766   40 D9 
08AOYU~1.asm(974): error A2009: Symbol not defined: Q07JC
     976 0577  73 20			                   JNB   20HJNBQ073B   
					               ;0768   30 04 D0 
08AOYU~1.asm(975): error A2009: Symbol not defined: JNBQ073B
Microsoft (R) Macro Assembler Version 5.00                                                                               Page     1-54


     977				                   CLR   A             
					               ;076B   E4 
08AOYU~1.asm(976): error A2105: Expected: instruction or directive
     978				                   MOV   08HMOV        
					               ;076C   F5 08 
08AOYU~1.asm(977): error A2009: Symbol not defined: MOV
     979				Q076E:             MOV   A,0MOV        
					               ;076E   E5 08 
08AOYU~1.asm(978): error A2062: Missing or unreachable CS
     980				                   CLR   C             
					               ;0770   C3 
08AOYU~1.asm(979): error A2105: Expected: instruction or directive
     981				                   SUBB  A,#12H        
					               ;0771   94 12 
08AOYU~1.asm(980): error A2105: Expected: instruction or directive
     982 0579  73 00			                   JNC   Q07JNC        
					               ;0773   50 C6 
08AOYU~1.asm(981): error A2009: Symbol not defined: Q07JNC
     983 057B  C7 06 0022 U 0057	                   MOV   22HMOVH       
					               ;0775   85 29 22 
08AOYU~1.asm(982): error A2009: Symbol not defined: MOVH
     984 0581  C7 06 0023 U 0059	                   MOV   23HMOVH       
					               ;0778   85 51 23 
08AOYU~1.asm(983): error A2009: Symbol not defined: MOVH
     985 0587  C7 06 004B U 0047	                   MOV   4BHMOVH       
					               ;077B   85 3C 4B 
08AOYU~1.asm(984): error A2009: Symbol not defined: MOVH
     986 058D  C7 06 003F U 007C	                   MOV   3FHMOVH       
					               ;077E   85 28 3F 
08AOYU~1.asm(985): error A2009: Symbol not defined: MOVH
     987 0593  C7 06 0049 U 0055	                   MOV   49HMOVH       
					               ;0781   85 2D 49 
08AOYU~1.asm(986): error A2009: Symbol not defined: MOVH
     988 0599  C7 06 0044 U 0066	                   MOV   44HMOVH       
					               ;0784   85 2A 44 
08AOYU~1.asm(987): error A2009: Symbol not defined: MOVH
     989				                   LCALL Q01CE         
					               ;0787   12 01 CE 
08AOYU~1.asm(988): error A2105: Expected: instruction or directive
     990				                   LCALL Q0989         
					               ;078A   12 09 89 
08AOYU~1.asm(989): error A2105: Expected: instruction or directive
     991 059F  72 20			                   JB    20HJB,Q0793   
					               ;078D   20 04 03 
08AOYU~1.asm(990): error A2009: Symbol not defined: JB
     992 05A1  C7 06 0008 U 0052	                   MOV   08HMOV3H      
					               ;0790   75 08 33 
08AOYU~1.asm(991): error A2009: Symbol not defined: MOV3H
     993 05A7  FF 06 0008 U		Q0793:             INC   08HINC        
					               ;0793   05 08 
08AOYU~1.asm(992): error A2062: Missing or unreachable CS
     994				                   SJMP  Q076E         
					               ;0795   80 D7 
08AOYU~1.asm(993): error A2105: Expected: instruction or directive
Microsoft (R) Macro Assembler Version 5.00                                                                               Page     1-55


     995 05AB  C3			Q0797:             RET      RET        
					               ;0797   22 
08AOYU~1.asm(994): error A2062: Missing or unreachable CS
     996				;======================================
					==================================== 
     997 05AC  01 00 00 01 52 18 01	Q0798:		 DB  01H, DBH, 00H, 01H
					, 52H, 18H, 01H, 3DH	;.H..R..= 
08AOYU~1.asm(996): error A2062: Missing or unreachable CS
     998       3D			
08AOYU~1.asm(996): error A2086: Data emitted with no segment
     999 05B4  00 00 3A 00 01 49 00	Q07A0:		 DB  00H, DBH, 3AH, 00H
					, 01H, 49H, 00H, 01H	;..:..I.. 
08AOYU~1.asm(997): error A2062: Missing or unreachable CS
    1000       01			
08AOYU~1.asm(997): error A2086: Data emitted with no segment
    1001 05BC  44 00 01 50 00 01 4A	Q07A8:		 DB  44H, DBH, 01H, 50H
					, 00H, 01H, 4AH, 00H	;D..P..J. 
08AOYU~1.asm(998): error A2062: Missing or unreachable CS
    1002       00			
08AOYU~1.asm(998): error A2086: Data emitted with no segment
    1003 05C4  01 00 02 01 23 00 01	Q07B0:		 DB  01H, DBH, 02H, 01H
					, 23H, 00H, 01H, 4BH	;."..#..K 
08AOYU~1.asm(999): error A2062: Missing or unreachable CS
    1004       4B			
08AOYU~1.asm(999): error A2086: Data emitted with no segment
    1005 05CC  00 00 3F 07 01 47 00	Q07B8:		 DB  00H, DBH, 3FH, 07H
					, 01H, 47H, 00H, 01H	;..?..G.. 
08AOYU~1.asm(1000): error A2062: Missing or unreachable CS
    1006       01			
08AOYU~1.asm(1000): error A2086: Data emitted with no segment
    1007 05D4  39 00 01 53 02 01 46	Q07C0:		 DB  39H, DBH, 01H, 53H
					, 02H, 01H, 46H, 06H	;9..S..F. 
08AOYU~1.asm(1001): error A2062: Missing or unreachable CS
    1008       06			
08AOYU~1.asm(1001): error A2086: Data emitted with no segment
    1009 05DC  01 00 00 01 37 01 01	Q07C8:		 DB  01H, DBH, 00H, 01H
					, 37H, 01H, 01H, 40H	;.2..7..@ 
08AOYU~1.asm(1002): error A2062: Missing or unreachable CS
    1010       40			
08AOYU~1.asm(1002): error A2086: Data emitted with no segment
    1011 05E4  04 00 3E 00 01 42 1F	Q07D0:		 DB  04H, DBH, 3EH, 00H
					, 01H, 42H, 1FH, 01H	;..>..B.. 
08AOYU~1.asm(1003): error A2062: Missing or unreachable CS
    1012       01			
08AOYU~1.asm(1003): error A2086: Data emitted with no segment
    1013 05EC  45 00 01 36 1E 01 41	Q07D8:		 DB  45H, DBH, 01H, 36H
					, 1EH, 01H, 41H, 0CH	;E..6..A. 
08AOYU~1.asm(1004): error A2062: Missing or unreachable CS
    1014       0C			
08AOYU~1.asm(1004): error A2086: Data emitted with no segment
    1015 05F4  01 00 00 C1 05 C1 00	Q07E0:		 DB  01H, DBH, 00H,0C1H
					, 05H,0C1H, 00H,0C1H	;.3...... 
08AOYU~1.asm(1005): error A2062: Missing or unreachable CS
    1016       C1			
08AOYU~1.asm(1005): error A2086: Data emitted with no segment
Microsoft (R) Macro Assembler Version 5.00                                                                               Page     1-56


    1017 05FC  04 DB 03 C1 02 C1 06	Q07E8:		 DB  04H,0DBH, 03H,0C1H
					, 02H,0C1H, 06H,0C1H	;........ 
08AOYU~1.asm(1006): error A2062: Missing or unreachable CS
    1018       C1			
08AOYU~1.asm(1006): error A2086: Data emitted with no segment
    1019 0604  01 00			Q07F0:		 DB  01H, DBH	;.. 
08AOYU~1.asm(1007): error A2062: Missing or unreachable CS
    1020				;======================================
					==================================== 
    1021				Q07F2:             CJNE  R4,#00H,Q0800 
					               ;07F2   BC 00 0B 
08AOYU~1.asm(1009): error A2062: Missing or unreachable CS
    1022				                   CJNE  R6,#00H,Q0821 
					               ;07F5   BE 00 29 
08AOYU~1.asm(1010): error A2105: Expected: instruction or directive
    1023				                   MOV   A,RMOV        
					               ;07F8   EF 
08AOYU~1.asm(1011): error A2009: Symbol not defined: A
    1024				                   MOV   B,RMOV        
					               ;07F9   8D F0 
08AOYU~1.asm(1012): error A2009: Symbol not defined: B
    1025 0606  F7 36 0000 U		                   DIV   AB DIV        
					               ;07FB   84 
08AOYU~1.asm(1013): error A2009: Symbol not defined: AB
    1026				                   MOV   R7,MOV        
					               ;07FC   FF 
08AOYU~1.asm(1014): error A2009: Symbol not defined: R7
    1027				                   MOV   R5,MOV        
					               ;07FD   AD F0 
08AOYU~1.asm(1015): error A2009: Symbol not defined: R5
    1028 060A  C3			                   RET      RET        
					               ;07FF   22 
08AOYU~1.asm(1016): error A2009: Symbol not defined: RET
    1029				;======================================
					==================================== 
    1030				Q0800:             CLR   A             
					               ;0800   E4 
08AOYU~1.asm(1018): error A2062: Missing or unreachable CS
    1031				                   XCH   A,R4          
					               ;0801   CC 
08AOYU~1.asm(1019): error A2105: Expected: instruction or directive
    1032				                   MOV   R0,MOV        
					               ;0802   F8 
08AOYU~1.asm(1020): error A2009: Symbol not defined: R0
    1033 060B  C7 06 0000 U 0000	                   MOV   B,#MOV        
					               ;0803   75 F0 08 
08AOYU~1.asm(1021): error A2009: Symbol not defined: B
    1034				Q0806:             MOV   A,RMOV        
					               ;0806   EF 
08AOYU~1.asm(1022): error A2062: Missing or unreachable CS
    1035				                   ADD   A,RADD        
					               ;0807   2F 
08AOYU~1.asm(1023): error A2009: Symbol not defined: A
Microsoft (R) Macro Assembler Version 5.00                                                                               Page     1-57


    1036				                   MOV   R7,MOV        
					               ;0808   FF 
08AOYU~1.asm(1024): error A2009: Symbol not defined: R7
    1037				                   MOV   A,RMOV        
					               ;0809   EE 
08AOYU~1.asm(1025): error A2009: Symbol not defined: A
    1038				                   RLC   A             
					               ;080A   33 
08AOYU~1.asm(1026): error A2105: Expected: instruction or directive
    1039				                   MOV   R6,MOV        
					               ;080B   FE 
08AOYU~1.asm(1027): error A2009: Symbol not defined: R6
    1040				                   MOV   A,RMOV        
					               ;080C   EC 
08AOYU~1.asm(1028): error A2009: Symbol not defined: A
    1041				                   RLC   A             
					               ;080D   33 
08AOYU~1.asm(1029): error A2105: Expected: instruction or directive
    1042				                   MOV   R4,MOV        
					               ;080E   FC 
08AOYU~1.asm(1030): error A2009: Symbol not defined: R4
    1043				                   MOV   A,RMOV        
					               ;080F   EE 
08AOYU~1.asm(1031): error A2009: Symbol not defined: A
    1044				                   SUBB  A,R5          
					               ;0810   9D 
08AOYU~1.asm(1032): error A2105: Expected: instruction or directive
    1045				                   MOV   A,RMOV        
					               ;0811   EC 
08AOYU~1.asm(1033): error A2009: Symbol not defined: A
    1046				                   SUBB  A,R0          
					               ;0812   98 
08AOYU~1.asm(1034): error A2105: Expected: instruction or directive
    1047 0611  72 00			                   JC    Q08JC         
					               ;0813   40 05 
08AOYU~1.asm(1035): error A2009: Symbol not defined: Q08JC
    1048				                   MOV   R4,MOV        
					               ;0815   FC 
08AOYU~1.asm(1036): error A2009: Symbol not defined: R4
    1049				                   MOV   A,RMOV        
					               ;0816   EE 
08AOYU~1.asm(1037): error A2009: Symbol not defined: A
    1050				                   SUBB  A,R5          
					               ;0817   9D 
08AOYU~1.asm(1038): error A2105: Expected: instruction or directive
    1051				                   MOV   R6,MOV        
					               ;0818   FE 
08AOYU~1.asm(1039): error A2009: Symbol not defined: R6
    1052 0613  FF 06 0000 U		                   INC   R7 INC        
					               ;0819   0F 
08AOYU~1.asm(1040): error A2009: Symbol not defined: R7
    1053				Q081A:             DJNZ  B,Q0806       
					               ;081A   D5 F0 E9 
08AOYU~1.asm(1041): error A2062: Missing or unreachable CS
Microsoft (R) Macro Assembler Version 5.00                                                                               Page     1-58


    1054				                   CLR   A             
					               ;081D   E4 
08AOYU~1.asm(1042): error A2105: Expected: instruction or directive
    1055				                   XCH   A,R6          
					               ;081E   CE 
08AOYU~1.asm(1043): error A2105: Expected: instruction or directive
    1056				                   MOV   R5,MOV        
					               ;081F   FD 
08AOYU~1.asm(1044): error A2009: Symbol not defined: R5
    1057 0617  C3			                   RET      RET        
					               ;0820   22 
08AOYU~1.asm(1045): error A2009: Symbol not defined: RET
    1058				;======================================
					==================================== 
    1059				Q0821:             MOV   A,RMOV        
					               ;0821   ED 
08AOYU~1.asm(1047): error A2062: Missing or unreachable CS
    1060				                   MOV   R0,MOV        
					               ;0822   F8 
08AOYU~1.asm(1048): error A2009: Symbol not defined: R0
    1061				                   MOV   B,AMOV        
					               ;0823   F5 F0 
08AOYU~1.asm(1049): error A2009: Symbol not defined: B
    1062				                   MOV   A,RMOV        
					               ;0825   EE 
08AOYU~1.asm(1050): error A2009: Symbol not defined: A
    1063 0618  F7 36 0000 U		                   DIV   AB DIV        
					               ;0826   84 
08AOYU~1.asm(1051): error A2009: Symbol not defined: AB
    1064 061C  72 00			                   JB    OV,JB846      
					               ;0827   20 D2 1C 
08AOYU~1.asm(1052): error A2009: Symbol not defined: OV
    1065				                   MOV   R6,MOV        
					               ;082A   FE 
08AOYU~1.asm(1053): error A2009: Symbol not defined: R6
    1066				                   MOV   R5,MOV        
					               ;082B   AD F0 
08AOYU~1.asm(1054): error A2009: Symbol not defined: R5
    1067 061E  C7 06 0000 U 0000	                   MOV   B,#MOV        
					               ;082D   75 F0 08 
08AOYU~1.asm(1055): error A2009: Symbol not defined: B
    1068				Q0830:             MOV   A,RMOV        
					               ;0830   EF 
08AOYU~1.asm(1056): error A2062: Missing or unreachable CS
    1069				                   ADD   A,RADD        
					               ;0831   2F 
08AOYU~1.asm(1057): error A2009: Symbol not defined: A
    1070				                   MOV   R7,MOV        
					               ;0832   FF 
08AOYU~1.asm(1058): error A2009: Symbol not defined: R7
    1071				                   MOV   A,RMOV        
					               ;0833   ED 
08AOYU~1.asm(1059): error A2009: Symbol not defined: A
    1072				                   RLC   A             
Microsoft (R) Macro Assembler Version 5.00                                                                               Page     1-59


					               ;0834   33 
08AOYU~1.asm(1060): error A2105: Expected: instruction or directive
    1073				                   MOV   R5,MOV        
					               ;0835   FD 
08AOYU~1.asm(1061): error A2009: Symbol not defined: R5
    1074 0624  72 00			                   JC    Q08JC         
					               ;0836   40 07 
08AOYU~1.asm(1062): error A2009: Symbol not defined: Q08JC
    1075				                   SUBB  A,R0          
					               ;0838   98 
08AOYU~1.asm(1063): error A2105: Expected: instruction or directive
    1076 0626  73 00			                   JNC   Q08JNC        
					               ;0839   50 06 
08AOYU~1.asm(1064): error A2009: Symbol not defined: Q08JNC
    1077				                   DJNZ  B,Q0830       
					               ;083B   D5 F0 F2 
08AOYU~1.asm(1065): error A2105: Expected: instruction or directive
    1078 0628  C3			                   RET      RET        
					               ;083E   22 
08AOYU~1.asm(1066): error A2009: Symbol not defined: RET
    1079				;======================================
					==================================== 
    1080				Q083F:             CLR   C             
					               ;083F   C3 
08AOYU~1.asm(1068): error A2062: Missing or unreachable CS
    1081				                   SUBB  A,R0          
					               ;0840   98 
08AOYU~1.asm(1069): error A2105: Expected: instruction or directive
    1082				Q0841:             MOV   R5,MOV        
					               ;0841   FD 
08AOYU~1.asm(1070): error A2062: Missing or unreachable CS
    1083 0629  FF 06 0000 U		                   INC   R7 INC        
					               ;0842   0F 
08AOYU~1.asm(1071): error A2009: Symbol not defined: R7
    1084				                   DJNZ  B,Q0830       
					               ;0843   D5 F0 EA 
08AOYU~1.asm(1072): error A2105: Expected: instruction or directive
    1085 062D  C3			Q0846:             RET      RET        
					               ;0846   22 
08AOYU~1.asm(1073): error A2062: Missing or unreachable CS
    1086				;======================================
					==================================== 
    1087 062E  73 20			Q0847:             JNB   20HJNBQ0894   
					               ;0847   30 00 4A 
08AOYU~1.asm(1075): error A2062: Missing or unreachable CS
    1088 0630  C7 06 002D U 0061	                   MOV   2DHMOVH       
					               ;084A   85 49 2D 
08AOYU~1.asm(1076): error A2009: Symbol not defined: MOVH
    1089 0636  C7 06 002A U 008A	                   MOV   2AHMOVH       
					               ;084D   85 44 2A 
08AOYU~1.asm(1077): error A2009: Symbol not defined: MOVH
    1090 063C  73 20			Q0850:             JNB   20HJNBQ0894   
					               ;0850   30 00 41 
08AOYU~1.asm(1078): error A2062: Missing or unreachable CS
Microsoft (R) Macro Assembler Version 5.00                                                                               Page     1-60


    1091				                   CLR   A             
					               ;0853   E4 
08AOYU~1.asm(1079): error A2105: Expected: instruction or directive
    1092				                   MOV   08HMOV        
					               ;0854   F5 08 
08AOYU~1.asm(1080): error A2009: Symbol not defined: MOV
    1093 063E  C7 06 0049 U 0065	Q0856:             MOV   49HMOVAH      
					               ;0856   75 49 0A 
08AOYU~1.asm(1081): error A2062: Missing or unreachable CS
    1094 0644  C7 06 0044 U 0063	                   MOV   44HMOVAH      
					               ;0859   75 44 0A 
08AOYU~1.asm(1082): error A2009: Symbol not defined: MOVAH
    1095				                   LCALL Q01C8         
					               ;085C   12 01 C8 
08AOYU~1.asm(1083): error A2105: Expected: instruction or directive
    1096				                   LCALL Q0989         
					               ;085F   12 09 89 
08AOYU~1.asm(1084): error A2105: Expected: instruction or directive
    1097 064A  72 20			                   JB    20HJB,Q0868   
					               ;0862   20 00 03 
08AOYU~1.asm(1085): error A2009: Symbol not defined: JB
    1098 064C  C7 06 0008 U 0055	                   MOV   08HMOV3H      
					               ;0865   75 08 33 
08AOYU~1.asm(1086): error A2009: Symbol not defined: MOV3H
    1099 0652  FF 06 0008 U		Q0868:             INC   08HINC        
					               ;0868   05 08 
08AOYU~1.asm(1087): error A2062: Missing or unreachable CS
    1100				                   MOV   A,0MOV        
					               ;086A   E5 08 
08AOYU~1.asm(1088): error A2009: Symbol not defined: A
    1101				                   CLR   C             
					               ;086C   C3 
08AOYU~1.asm(1089): error A2105: Expected: instruction or directive
    1102				                   SUBB  A,#12H        
					               ;086D   94 12 
08AOYU~1.asm(1090): error A2105: Expected: instruction or directive
    1103 0656  72 00			                   JC    Q08JC         
					               ;086F   40 E5 
08AOYU~1.asm(1091): error A2009: Symbol not defined: Q08JC
    1104 0658  73 20			                   JNB   20HJNBQ0850   
					               ;0871   30 00 DC 
08AOYU~1.asm(1092): error A2009: Symbol not defined: JNBQ0850
    1105				                   CLR   A             
					               ;0874   E4 
08AOYU~1.asm(1093): error A2105: Expected: instruction or directive
    1106				                   MOV   08HMOV        
					               ;0875   F5 08 
08AOYU~1.asm(1094): error A2009: Symbol not defined: MOV
    1107				Q0877:             MOV   A,0MOV        
					               ;0877   E5 08 
08AOYU~1.asm(1095): error A2062: Missing or unreachable CS
    1108				                   CLR   C             
					               ;0879   C3 
08AOYU~1.asm(1096): error A2105: Expected: instruction or directive
Microsoft (R) Macro Assembler Version 5.00                                                                               Page     1-61


    1109				                   SUBB  A,#12H        
					               ;087A   94 12 
08AOYU~1.asm(1097): error A2105: Expected: instruction or directive
    1110 065A  73 00			                   JNC   Q08JNC        
					               ;087C   50 D2 
08AOYU~1.asm(1098): error A2009: Symbol not defined: Q08JNC
    1111 065C  C7 06 0049 U 006B	                   MOV   49HMOVH       
					               ;087E   85 2D 49 
08AOYU~1.asm(1099): error A2009: Symbol not defined: MOVH
    1112 0662  C7 06 0044 U 0067	                   MOV   44HMOVH       
					               ;0881   85 2A 44 
08AOYU~1.asm(1100): error A2009: Symbol not defined: MOVH
    1113				                   LCALL Q01C8         
					               ;0884   12 01 C8 
08AOYU~1.asm(1101): error A2105: Expected: instruction or directive
    1114				                   LCALL Q0989         
					               ;0887   12 09 89 
08AOYU~1.asm(1102): error A2105: Expected: instruction or directive
    1115 0668  72 20			                   JB    20HJB,Q0890   
					               ;088A   20 00 03 
08AOYU~1.asm(1103): error A2009: Symbol not defined: JB
    1116 066A  C7 06 0008 U 007C	                   MOV   08HMOV3H      
					               ;088D   75 08 33 
08AOYU~1.asm(1104): error A2009: Symbol not defined: MOV3H
    1117 0670  FF 06 0008 U		Q0890:             INC   08HINC        
					               ;0890   05 08 
08AOYU~1.asm(1105): error A2062: Missing or unreachable CS
    1118				                   SJMP  Q0877         
					               ;0892   80 E3 
08AOYU~1.asm(1106): error A2105: Expected: instruction or directive
    1119 0674  C3			Q0894:             RET      RET        
					               ;0894   22 
08AOYU~1.asm(1107): error A2062: Missing or unreachable CS
    1120				;======================================
					==================================== 
    1121 0675  72 00			Q0895:             JB    TR0JB08A0     
					               ;0895   20 8C 08 
08AOYU~1.asm(1109): error A2062: Missing or unreachable CS
    1122				                   LCALL Q09B7         
					               ;0898   12 09 B7 
08AOYU~1.asm(1110): error A2105: Expected: instruction or directive
    1123 0677  C7 06 0045 U 004C	                   MOV   45HMOV        
					               ;089B   8F 45 
08AOYU~1.asm(1111): error A2009: Symbol not defined: MOV
    1124 067D  C7 06 003B U 007E	                   MOV   3BHMOVH       
					               ;089D   85 45 3B 
08AOYU~1.asm(1112): error A2009: Symbol not defined: MOVH
    1125 0683  73 20			Q08A0:             JNB   20HJNBQ08E1   
					               ;08A0   30 03 3E 
08AOYU~1.asm(1113): error A2062: Missing or unreachable CS
    1126 0685  C7 06 0054 U 0077	                   MOV   54HMOVH       
					               ;08A3   85 39 54 
08AOYU~1.asm(1114): error A2009: Symbol not defined: MOVH
    1127 068B  C7 06 0038 U 007A	                   MOV   38HMOVH       
Microsoft (R) Macro Assembler Version 5.00                                                                               Page     1-62


					               ;08A6   85 47 38 
08AOYU~1.asm(1115): error A2009: Symbol not defined: MOVH
    1128 0691  73 20			Q08A9:             JNB   20HJNBQ08E1   
					               ;08A9   30 03 35 
08AOYU~1.asm(1116): error A2062: Missing or unreachable CS
    1129				                   CLR   A             
					               ;08AC   E4 
08AOYU~1.asm(1117): error A2105: Expected: instruction or directive
    1130				                   MOV   08HMOV        
					               ;08AD   F5 08 
08AOYU~1.asm(1118): error A2009: Symbol not defined: MOV
    1131 0693  C7 06 0039 U 008B	Q08AF:             MOV   39HMOVAH      
					               ;08AF   75 39 0A 
08AOYU~1.asm(1119): error A2062: Missing or unreachable CS
    1132 0699  C7 06 0047 U 0079	                   MOV   47HMOVAH      
					               ;08B2   75 47 0A 
08AOYU~1.asm(1120): error A2009: Symbol not defined: MOVAH
    1133				                   LCALL Q097A         
					               ;08B5   12 09 7A 
08AOYU~1.asm(1121): error A2105: Expected: instruction or directive
    1134 069F  72 20			                   JB    20HJB,Q08BE   
					               ;08B8   20 03 03 
08AOYU~1.asm(1122): error A2009: Symbol not defined: JB
    1135 06A1  C7 06 0008 U 0046	                   MOV   08HMOV3H      
					               ;08BB   75 08 33 
08AOYU~1.asm(1123): error A2009: Symbol not defined: MOV3H
    1136 06A7  FF 06 0008 U		Q08BE:             INC   08HINC        
					               ;08BE   05 08 
08AOYU~1.asm(1124): error A2062: Missing or unreachable CS
    1137				                   MOV   A,0MOV        
					               ;08C0   E5 08 
08AOYU~1.asm(1125): error A2009: Symbol not defined: A
    1138				                   CLR   C             
					               ;08C2   C3 
08AOYU~1.asm(1126): error A2105: Expected: instruction or directive
    1139				                   SUBB  A,#12H        
					               ;08C3   94 12 
08AOYU~1.asm(1127): error A2105: Expected: instruction or directive
    1140 06AB  72 00			                   JC    Q08JC         
					               ;08C5   40 E8 
08AOYU~1.asm(1128): error A2009: Symbol not defined: Q08JC
    1141 06AD  73 20			                   JNB   20HJNBQ08A9   
					               ;08C7   30 03 DF 
08AOYU~1.asm(1129): error A2009: Symbol not defined: JNBQ08A9
    1142				                   CLR   A             
					               ;08CA   E4 
08AOYU~1.asm(1130): error A2105: Expected: instruction or directive
    1143				                   MOV   08HMOV        
					               ;08CB   F5 08 
08AOYU~1.asm(1131): error A2009: Symbol not defined: MOV
    1144				Q08CD:             MOV   A,0MOV        
					               ;08CD   E5 08 
08AOYU~1.asm(1132): error A2062: Missing or unreachable CS
    1145				                   CLR   C             
Microsoft (R) Macro Assembler Version 5.00                                                                               Page     1-63


					               ;08CF   C3 
08AOYU~1.asm(1133): error A2105: Expected: instruction or directive
    1146				                   SUBB  A,#12H        
					               ;08D0   94 12 
08AOYU~1.asm(1134): error A2105: Expected: instruction or directive
    1147 06AF  73 00			                   JNC   Q08JNC        
					               ;08D2   50 D5 
08AOYU~1.asm(1135): error A2009: Symbol not defined: Q08JNC
    1148				                   LCALL Q0974         
					               ;08D4   12 09 74 
08AOYU~1.asm(1136): error A2105: Expected: instruction or directive
    1149 06B1  72 20			                   JB    20HJB,Q08DD   
					               ;08D7   20 03 03 
08AOYU~1.asm(1137): error A2009: Symbol not defined: JB
    1150 06B3  C7 06 0008 U 007D	                   MOV   08HMOV3H      
					               ;08DA   75 08 33 
08AOYU~1.asm(1138): error A2009: Symbol not defined: MOV3H
    1151 06B9  FF 06 0008 U		Q08DD:             INC   08HINC        
					               ;08DD   05 08 
08AOYU~1.asm(1139): error A2062: Missing or unreachable CS
    1152				                   SJMP  Q08CD         
					               ;08DF   80 EC 
08AOYU~1.asm(1140): error A2105: Expected: instruction or directive
    1153 06BD  C3			Q08E1:             RET      RET        
					               ;08E1   22 
08AOYU~1.asm(1141): error A2062: Missing or unreachable CS
    1154				;======================================
					==================================== 
    1155 06BE  73 20			Q08E2:             JNB   20HJNBQ092B   
					               ;08E2   30 05 46 
08AOYU~1.asm(1143): error A2062: Missing or unreachable CS
    1156				                   CLR   TR0           
					               ;08E5   C2 8C 
08AOYU~1.asm(1144): error A2105: Expected: instruction or directive
    1157 06C0  C7 06 0030 U 0076	                   MOV   30HMOVH       
					               ;08E7   85 50 30 
08AOYU~1.asm(1145): error A2009: Symbol not defined: MOVH
    1158 06C6  C7 06 002F U 00A3	                   MOV   2FHMOVH       
					               ;08EA   85 4A 2F 
08AOYU~1.asm(1146): error A2009: Symbol not defined: MOVH
    1159 06CC  73 20			Q08ED:             JNB   20HJNBQ092B   
					               ;08ED   30 05 3B 
08AOYU~1.asm(1147): error A2062: Missing or unreachable CS
    1160				                   CLR   A             
					               ;08F0   E4 
08AOYU~1.asm(1148): error A2105: Expected: instruction or directive
    1161				                   MOV   08HMOV        
					               ;08F1   F5 08 
08AOYU~1.asm(1149): error A2009: Symbol not defined: MOV
    1162 06CE  C7 06 0050 U 007D	Q08F3:             MOV   50HMOVAH      
					               ;08F3   75 50 0A 
08AOYU~1.asm(1150): error A2062: Missing or unreachable CS
    1163 06D4  C7 06 004A U 008F	                   MOV   4AHMOVAH      
					               ;08F6   75 4A 0A 
08AOYU~1.asm(1151): error A2009: Symbol not defined: MOVAH
Microsoft (R) Macro Assembler Version 5.00                                                                               Page     1-64


    1164				                   LCALL Q01CE         
					               ;08F9   12 01 CE 
08AOYU~1.asm(1152): error A2105: Expected: instruction or directive
    1165				                   LCALL Q0989         
					               ;08FC   12 09 89 
08AOYU~1.asm(1153): error A2105: Expected: instruction or directive
    1166 06DA  72 20			                   JB    20HJB,Q0905   
					               ;08FF   20 05 03 
08AOYU~1.asm(1154): error A2009: Symbol not defined: JB
    1167 06DC  C7 06 0008 U 004A	                   MOV   08HMOV3H      
					               ;0902   75 08 33 
08AOYU~1.asm(1155): error A2009: Symbol not defined: MOV3H
    1168 06E2  FF 06 0008 U		Q0905:             INC   08HINC        
					               ;0905   05 08 
08AOYU~1.asm(1156): error A2062: Missing or unreachable CS
    1169				                   MOV   A,0MOV        
					               ;0907   E5 08 
08AOYU~1.asm(1157): error A2009: Symbol not defined: A
    1170				                   CLR   C             
					               ;0909   C3 
08AOYU~1.asm(1158): error A2105: Expected: instruction or directive
    1171				                   SUBB  A,#12H        
					               ;090A   94 12 
08AOYU~1.asm(1159): error A2105: Expected: instruction or directive
    1172 06E6  72 00			                   JC    Q08JC         
					               ;090C   40 E5 
08AOYU~1.asm(1160): error A2009: Symbol not defined: Q08JC
    1173 06E8  73 20			                   JNB   20HJNBQ08ED   
					               ;090E   30 05 DC 
08AOYU~1.asm(1161): error A2009: Symbol not defined: JNBQ08ED
    1174				                   CLR   A             
					               ;0911   E4 
08AOYU~1.asm(1162): error A2105: Expected: instruction or directive
    1175				                   MOV   08HMOV        
					               ;0912   F5 08 
08AOYU~1.asm(1163): error A2009: Symbol not defined: MOV
    1176				Q0914:             MOV   A,0MOV        
					               ;0914   E5 08 
08AOYU~1.asm(1164): error A2062: Missing or unreachable CS
    1177				                   CLR   C             
					               ;0916   C3 
08AOYU~1.asm(1165): error A2105: Expected: instruction or directive
    1178				                   SUBB  A,#12H        
					               ;0917   94 12 
08AOYU~1.asm(1166): error A2105: Expected: instruction or directive
    1179 06EA  73 00			                   JNC   Q08JNC        
					               ;0919   50 D2 
08AOYU~1.asm(1167): error A2009: Symbol not defined: Q08JNC
    1180				                   LCALL Q01C8         
					               ;091B   12 01 C8 
08AOYU~1.asm(1168): error A2105: Expected: instruction or directive
    1181				                   LCALL Q0989         
					               ;091E   12 09 89 
08AOYU~1.asm(1169): error A2105: Expected: instruction or directive
Microsoft (R) Macro Assembler Version 5.00                                                                               Page     1-65


    1182 06EC  72 20			                   JB    20HJB,Q0927   
					               ;0921   20 05 03 
08AOYU~1.asm(1170): error A2009: Symbol not defined: JB
    1183 06EE  C7 06 0008 U 0050	                   MOV   08HMOV3H      
					               ;0924   75 08 33 
08AOYU~1.asm(1171): error A2009: Symbol not defined: MOV3H
    1184 06F4  FF 06 0008 U		Q0927:             INC   08HINC        
					               ;0927   05 08 
08AOYU~1.asm(1172): error A2062: Missing or unreachable CS
    1185				                   SJMP  Q0914         
					               ;0929   80 E9 
08AOYU~1.asm(1173): error A2105: Expected: instruction or directive
    1186 06F8  C3			Q092B:             RET      RET        
					               ;092B   22 
08AOYU~1.asm(1174): error A2062: Missing or unreachable CS
    1187				;======================================
					==================================== 
    1188 06F9  73 20			Q092C:             JNB   20HJNBQ0973   
					               ;092C   30 02 44 
08AOYU~1.asm(1176): error A2062: Missing or unreachable CS
    1189 06FB  C7 06 002E U 007A	                   MOV   2EHMOVH       
					               ;092F   85 46 2E 
08AOYU~1.asm(1177): error A2009: Symbol not defined: MOVH
    1190 0701  C7 06 0043 U 0059	                   MOV   43HMOVH       
					               ;0932   85 53 43 
08AOYU~1.asm(1178): error A2009: Symbol not defined: MOVH
    1191 0707  73 20			Q0935:             JNB   20HJNBQ0973   
					               ;0935   30 02 3B 
08AOYU~1.asm(1179): error A2062: Missing or unreachable CS
    1192				                   CLR   A             
					               ;0938   E4 
08AOYU~1.asm(1180): error A2105: Expected: instruction or directive
    1193				                   MOV   08HMOV        
					               ;0939   F5 08 
08AOYU~1.asm(1181): error A2009: Symbol not defined: MOV
    1194 0709  C7 06 0046 U 0047	Q093B:             MOV   46HMOVAH      
					               ;093B   75 46 0A 
08AOYU~1.asm(1182): error A2062: Missing or unreachable CS
    1195 070F  C7 06 0053 U 0070	                   MOV   53HMOVAH      
					               ;093E   75 53 0A 
08AOYU~1.asm(1183): error A2009: Symbol not defined: MOVAH
    1196				                   LCALL Q0974         
					               ;0941   12 09 74 
08AOYU~1.asm(1184): error A2105: Expected: instruction or directive
    1197 0715  72 20			                   JB    20HJB,Q094A   
					               ;0944   20 02 03 
08AOYU~1.asm(1185): error A2009: Symbol not defined: JB
    1198 0717  C7 06 0008 U 0057	                   MOV   08HMOV3H      
					               ;0947   75 08 33 
08AOYU~1.asm(1186): error A2009: Symbol not defined: MOV3H
    1199 071D  FF 06 0008 U		Q094A:             INC   08HINC        
					               ;094A   05 08 
08AOYU~1.asm(1187): error A2062: Missing or unreachable CS
Microsoft (R) Macro Assembler Version 5.00                                                                               Page     1-66


    1200				                   MOV   A,0MOV        
					               ;094C   E5 08 
08AOYU~1.asm(1188): error A2009: Symbol not defined: A
    1201				                   CLR   C             
					               ;094E   C3 
08AOYU~1.asm(1189): error A2105: Expected: instruction or directive
    1202				                   SUBB  A,#12H        
					               ;094F   94 12 
08AOYU~1.asm(1190): error A2105: Expected: instruction or directive
    1203 0721  72 00			                   JC    Q09JC         
					               ;0951   40 E8 
08AOYU~1.asm(1191): error A2009: Symbol not defined: Q09JC
    1204 0723  73 20			                   JNB   20HJNBQ0935   
					               ;0953   30 02 DF 
08AOYU~1.asm(1192): error A2009: Symbol not defined: JNBQ0935
    1205				                   CLR   A             
					               ;0956   E4 
08AOYU~1.asm(1193): error A2105: Expected: instruction or directive
    1206				                   MOV   08HMOV        
					               ;0957   F5 08 
08AOYU~1.asm(1194): error A2009: Symbol not defined: MOV
    1207				Q0959:             MOV   A,0MOV        
					               ;0959   E5 08 
08AOYU~1.asm(1195): error A2062: Missing or unreachable CS
    1208				                   CLR   C             
					               ;095B   C3 
08AOYU~1.asm(1196): error A2105: Expected: instruction or directive
    1209				                   SUBB  A,#12H        
					               ;095C   94 12 
08AOYU~1.asm(1197): error A2105: Expected: instruction or directive
    1210 0725  73 00			                   JNC   Q09JNC        
					               ;095E   50 D5 
08AOYU~1.asm(1198): error A2009: Symbol not defined: Q09JNC
    1211 0727  C7 06 0046 U 006C	                   MOV   46HMOVH       
					               ;0960   85 2E 46 
08AOYU~1.asm(1199): error A2009: Symbol not defined: MOVH
    1212 072D  C7 06 0053 U 0060	                   MOV   53HMOVH       
					               ;0963   85 43 53 
08AOYU~1.asm(1200): error A2009: Symbol not defined: MOVH
    1213				                   LCALL Q0974         
					               ;0966   12 09 74 
08AOYU~1.asm(1201): error A2105: Expected: instruction or directive
    1214 0733  72 20			                   JB    20HJB,Q096F   
					               ;0969   20 02 03 
08AOYU~1.asm(1202): error A2009: Symbol not defined: JB
    1215 0735  C7 06 0008 U 0067	                   MOV   08HMOV3H      
					               ;096C   75 08 33 
08AOYU~1.asm(1203): error A2009: Symbol not defined: MOV3H
    1216 073B  FF 06 0008 U		Q096F:             INC   08HINC        
					               ;096F   05 08 
08AOYU~1.asm(1204): error A2062: Missing or unreachable CS
    1217				                   SJMP  Q0959         
					               ;0971   80 E6 
08AOYU~1.asm(1205): error A2105: Expected: instruction or directive
Microsoft (R) Macro Assembler Version 5.00                                                                               Page     1-67


    1218 073F  C3			Q0973:             RET      RET        
					               ;0973   22 
08AOYU~1.asm(1206): error A2062: Missing or unreachable CS
    1219				;======================================
					==================================== 
    1220 0740  C7 06 0039 U 0068	Q0974:             MOV   39HMOVH       
					               ;0974   85 54 39 
08AOYU~1.asm(1208): error A2062: Missing or unreachable CS
    1221 0746  C7 06 0047 U 006B	                   MOV   47HMOVH       
					               ;0977   85 38 47 
08AOYU~1.asm(1209): error A2009: Symbol not defined: MOVH
    1222 074C  C7 06 0022 U 006B	Q097A:             MOV   22HMOVH       
					               ;097A   85 29 22 
08AOYU~1.asm(1210): error A2062: Missing or unreachable CS
    1223 0752  C7 06 0023 U 0088	                   MOV   23HMOVH       
					               ;097D   85 51 23 
08AOYU~1.asm(1211): error A2009: Symbol not defined: MOVH
    1224 0758  C7 06 004B U 0066	                   MOV   4BHMOVH       
					               ;0980   85 3C 4B 
08AOYU~1.asm(1212): error A2009: Symbol not defined: MOVH
    1225 075E  C7 06 003F U 0074	                   MOV   3FHMOVH       
					               ;0983   85 28 3F 
08AOYU~1.asm(1213): error A2009: Symbol not defined: MOVH
    1226				                   LCALL Q01CE         
					               ;0986   12 01 CE 
08AOYU~1.asm(1214): error A2105: Expected: instruction or directive
    1227				Q0989:             MOV   P1,MOVFH      
					               ;0989   75 90 FF 
08AOYU~1.asm(1215): error A2062: Missing or unreachable CS
    1228				                   MOV   A,PMOV        
					               ;098C   E5 90 
08AOYU~1.asm(1216): error A2009: Symbol not defined: A
    1229				                   CPL   A             
					               ;098E   F4 
08AOYU~1.asm(1217): error A2105: Expected: instruction or directive
    1230 0764  74 00			                   JZ    Q09JZ         
					               ;098F   60 25 
08AOYU~1.asm(1218): error A2009: Symbol not defined: Q09JZ
    1231				                   LCALL Q01CE         
					               ;0991   12 01 CE 
08AOYU~1.asm(1219): error A2105: Expected: instruction or directive
    1232				                   LCALL Q01CE         
					               ;0994   12 01 CE 
08AOYU~1.asm(1220): error A2105: Expected: instruction or directive
    1233				                   LCALL Q01CE         
					               ;0997   12 01 CE 
08AOYU~1.asm(1221): error A2105: Expected: instruction or directive
    1234				                   MOV   A,PMOV        
					               ;099A   E5 90 
08AOYU~1.asm(1222): error A2009: Symbol not defined: A
    1235				                   CPL   A             
					               ;099C   F4 
08AOYU~1.asm(1223): error A2105: Expected: instruction or directive
    1236 0766  74 00			                   JZ    Q09JZ         
Microsoft (R) Macro Assembler Version 5.00                                                                               Page     1-68


					               ;099D   60 17 
08AOYU~1.asm(1224): error A2009: Symbol not defined: Q09JZ
    1237				                   MOV   R7,MOV        
					               ;099F   AF 90 
08AOYU~1.asm(1225): error A2009: Symbol not defined: R7
    1238				                   MOV   A,RMOV        
					               ;09A1   EF 
08AOYU~1.asm(1226): error A2009: Symbol not defined: A
    1239 0768  83 06 0000 U 00		                   ADD   A,#ADD        
					               ;09A2   24 05 
08AOYU~1.asm(1227): error A2009: Symbol not defined: A
    1240 076D  74 00			                   JZ    Q09JZ         
					               ;09A4   60 0D 
08AOYU~1.asm(1228): error A2009: Symbol not defined: Q09JZ
    1241 076F  83 06 0000 U 00		                   ADD   A,#ADDH       
					               ;09A6   24 FE 
08AOYU~1.asm(1229): error A2009: Symbol not defined: A
    1242 0774  74 00			                   JZ    Q09JZ         
					               ;09A8   60 06 
08AOYU~1.asm(1230): error A2009: Symbol not defined: Q09JZ
    1243 0776  FF 0E 0000 U		                   DEC   A  DEC        
					               ;09AA   14 
08AOYU~1.asm(1231): error A2009: Symbol not defined: A
    1244 077A  75 00			                   JNZ   Q09JNZ        
					               ;09AB   70 09 
08AOYU~1.asm(1232): error A2009: Symbol not defined: Q09JNZ
    1245				                   LJMP  Q06B3         
					               ;09AD   02 06 B3 
08AOYU~1.asm(1233): error A2105: Expected: instruction or directive
    1246				;======================================
					==================================== 
    1247				Q09B0:             LJMP  Q0000         
					               ;09B0   02 00 00 
08AOYU~1.asm(1235): error A2062: Missing or unreachable CS
    1248				;======================================
					==================================== 
    1249				Q09B3:             LCALL Q0367         
					               ;09B3   12 03 67 
08AOYU~1.asm(1237): error A2062: Missing or unreachable CS
    1250 077C  C3			Q09B6:             RET      RET        
					               ;09B6   22 
08AOYU~1.asm(1238): error A2062: Missing or unreachable CS
    1251				;======================================
					==================================== 
    1252				Q09B7:             LCALL Q0633         
					               ;09B7   12 06 33 
08AOYU~1.asm(1240): error A2062: Missing or unreachable CS
    1253				                   MOV   A,2MOV        
					               ;09BA   E5 26 
08AOYU~1.asm(1241): error A2009: Symbol not defined: A
    1254				                   ANL   A,#03H        
					               ;09BC   54 03 
08AOYU~1.asm(1242): error A2105: Expected: instruction or directive
    1255 077D  75 00			                   JNZ   Q09JNZ        
Microsoft (R) Macro Assembler Version 5.00                                                                               Page     1-69


					               ;09BE   70 0E 
08AOYU~1.asm(1243): error A2009: Symbol not defined: Q09JNZ
    1256				                   MOV   R6,MOV        
					               ;09C0   AE 25 
08AOYU~1.asm(1244): error A2009: Symbol not defined: R6
    1257				                   MOV   R7,MOV        
					               ;09C2   AF 26 
08AOYU~1.asm(1245): error A2009: Symbol not defined: R7
    1258				                   MOV   R4,MOV        
					               ;09C4   FC 
08AOYU~1.asm(1246): error A2009: Symbol not defined: R4
    1259				                   MOV   R5,MOVH       
					               ;09C5   7D 64 
08AOYU~1.asm(1247): error A2009: Symbol not defined: R5
    1260				                   LCALL Q07F2         
					               ;09C7   12 07 F2 
08AOYU~1.asm(1248): error A2105: Expected: instruction or directive
    1261				                   MOV   A,RMOV        
					               ;09CA   ED 
08AOYU~1.asm(1249): error A2009: Symbol not defined: A
    1262				                   ORL   A,R4          
					               ;09CB   4C 
08AOYU~1.asm(1250): error A2105: Expected: instruction or directive
    1263 077F  75 00			                   JNZ   Q09JNZ        
					               ;09CC   70 1E 
08AOYU~1.asm(1251): error A2009: Symbol not defined: Q09JNZ
    1264				Q09CE:             MOV   R6,MOV        
					               ;09CE   AE 25 
08AOYU~1.asm(1252): error A2062: Missing or unreachable CS
    1265				                   MOV   R7,MOV        
					               ;09D0   AF 26 
08AOYU~1.asm(1253): error A2009: Symbol not defined: R7
    1266				                   MOV   R4,MOVH       
					               ;09D2   7C 00 
08AOYU~1.asm(1254): error A2009: Symbol not defined: R4
    1267				                   MOV   R5,MOVH       
					               ;09D4   7D 64 
08AOYU~1.asm(1255): error A2009: Symbol not defined: R5
    1268				                   LCALL Q07F2         
					               ;09D6   12 07 F2 
08AOYU~1.asm(1256): error A2105: Expected: instruction or directive
    1269				                   MOV   A,RMOV        
					               ;09D9   ED 
08AOYU~1.asm(1257): error A2009: Symbol not defined: A
    1270				                   ORL   A,R4          
					               ;09DA   4C 
08AOYU~1.asm(1258): error A2105: Expected: instruction or directive
    1271 0781  75 00			                   JNZ   Q09JNZ        
					               ;09DB   70 12 
08AOYU~1.asm(1259): error A2009: Symbol not defined: Q09JNZ
    1272				                   MOV   R6,MOV        
					               ;09DD   AE 25 
08AOYU~1.asm(1260): error A2009: Symbol not defined: R6
    1273				                   MOV   R7,MOV        
Microsoft (R) Macro Assembler Version 5.00                                                                               Page     1-70


					               ;09DF   AF 26 
08AOYU~1.asm(1261): error A2009: Symbol not defined: R7
    1274				                   MOV   R4,MOVH       
					               ;09E1   7C 01 
08AOYU~1.asm(1262): error A2009: Symbol not defined: R4
    1275				                   MOV   R5,MOVH       
					               ;09E3   7D 90 
08AOYU~1.asm(1263): error A2009: Symbol not defined: R5
    1276				                   LCALL Q07F2         
					               ;09E5   12 07 F2 
08AOYU~1.asm(1264): error A2105: Expected: instruction or directive
    1277				                   MOV   A,RMOV        
					               ;09E8   ED 
08AOYU~1.asm(1265): error A2009: Symbol not defined: A
    1278				                   ORL   A,R4          
					               ;09E9   4C 
08AOYU~1.asm(1266): error A2105: Expected: instruction or directive
    1279 0783  75 00			                   JNZ   Q09JNZ        
					               ;09EA   70 03 
08AOYU~1.asm(1267): error A2009: Symbol not defined: Q09JNZ
    1280				Q09EC:             MOV   R7,MOVH       
					               ;09EC   7F 1D 
08AOYU~1.asm(1268): error A2062: Missing or unreachable CS
    1281 0785  C3			                   RET      RET        
					               ;09EE   22 
08AOYU~1.asm(1269): error A2009: Symbol not defined: RET
    1282				;======================================
					==================================== 
    1283				Q09EF:             MOV   R7,MOVH       
					               ;09EF   7F 1C 
08AOYU~1.asm(1271): error A2062: Missing or unreachable CS
    1284 0786  C3			                   RET      RET        
					               ;09F1   22 
08AOYU~1.asm(1272): error A2009: Symbol not defined: RET
    1285				;======================================
					==================================== 
    1286				Q09F2:             ADD   A,AADD        
					               ;09F2   25 E0 
08AOYU~1.asm(1274): error A2062: Missing or unreachable CS
    1287 0787  83 06 0000 U 00		                   ADD   A,#ADD        
					               ;09F4   24 6D 
08AOYU~1.asm(1275): error A2009: Symbol not defined: A
    1288				                   MOV   DPLMOV        
					               ;09F6   F5 82 
08AOYU~1.asm(1276): error A2009: Symbol not defined: DPLMOV
    1289				                   CLR   A             
					               ;09F8   E4 
08AOYU~1.asm(1277): error A2105: Expected: instruction or directive
    1290				                   ADDC  A,#0AH        
					               ;09F9   34 0A 
08AOYU~1.asm(1278): error A2105: Expected: instruction or directive
    1291				                   MOV   DPHMOV        
					               ;09FB   F5 83 
08AOYU~1.asm(1279): error A2009: Symbol not defined: DPHMOV
Microsoft (R) Macro Assembler Version 5.00                                                                               Page     1-71


    1292 078C  C7 06 0000 U 0000	                   MOV   A,#MOV        
					               ;09FD   74 01 
08AOYU~1.asm(1280): error A2009: Symbol not defined: A
    1293				                   MOVC  A,@A+DPTR     
					               ;09FF   93 
08AOYU~1.asm(1281): error A2105: Expected: instruction or directive
    1294				Q0A00:             MOV   DPTMOV0EFFFH  
					               ;0A00   90 EF FF 
08AOYU~1.asm(1282): error A2062: Missing or unreachable CS
    1295				Q0A03:             MOVX  @DPTR,A       
					               ;0A03   F0 
08AOYU~1.asm(1283): error A2062: Missing or unreachable CS
    1296				                   MOV   R7,MOVH       
					               ;0A04   7F 03 
08AOYU~1.asm(1284): error A2009: Symbol not defined: R7
    1297				                   MOV   R6,MOVH       
					               ;0A06   7E 00 
08AOYU~1.asm(1285): error A2009: Symbol not defined: R6
    1298				Q0A08:             SETB  C             
					               ;0A08   D3 
08AOYU~1.asm(1286): error A2062: Missing or unreachable CS
    1299				                   MOV   A,RMOV        
					               ;0A09   EF 
08AOYU~1.asm(1287): error A2009: Symbol not defined: A
    1300				                   SUBB  A,#00H        
					               ;0A0A   94 00 
08AOYU~1.asm(1288): error A2105: Expected: instruction or directive
    1301				                   MOV   A,RMOV        
					               ;0A0C   EE 
08AOYU~1.asm(1289): error A2009: Symbol not defined: A
    1302				                   SUBB  A,#00H        
					               ;0A0D   94 00 
08AOYU~1.asm(1290): error A2105: Expected: instruction or directive
    1303 0792  72 00			                   JC    Q0AJC         
					               ;0A0F   40 14 
08AOYU~1.asm(1291): error A2009: Symbol not defined: Q0AJC
    1304				                   MOV   R5,MOVH       
					               ;0A11   7D 32 
08AOYU~1.asm(1292): error A2009: Symbol not defined: R5
    1305				                   MOV   R4,MOVH       
					               ;0A13   7C 00 
08AOYU~1.asm(1293): error A2009: Symbol not defined: R4
    1306				Q0A15:             MOV   A,RMOV        
					               ;0A15   ED 
08AOYU~1.asm(1294): error A2062: Missing or unreachable CS
    1307 0794  FF 0E 0000 U		                   DEC   R5 DEC        
					               ;0A16   1D 
08AOYU~1.asm(1295): error A2009: Symbol not defined: R5
    1308 0798  75 00			                   JNZ   Q0AJNZ        
					               ;0A17   70 01 
08AOYU~1.asm(1296): error A2009: Symbol not defined: Q0AJNZ
    1309 079A  FF 0E 0000 U		                   DEC   R4 DEC        
					               ;0A19   1C 
08AOYU~1.asm(1297): error A2009: Symbol not defined: R4
Microsoft (R) Macro Assembler Version 5.00                                                                               Page     1-72


    1310				Q0A1A:             MOV   A,RMOV        
					               ;0A1A   ED 
08AOYU~1.asm(1298): error A2062: Missing or unreachable CS
    1311				                   ORL   A,R4          
					               ;0A1B   4C 
08AOYU~1.asm(1299): error A2105: Expected: instruction or directive
    1312 079E  75 00			                   JNZ   Q0AJNZ        
					               ;0A1C   70 F7 
08AOYU~1.asm(1300): error A2009: Symbol not defined: Q0AJNZ
    1313				                   MOV   A,RMOV        
					               ;0A1E   EF 
08AOYU~1.asm(1301): error A2009: Symbol not defined: A
    1314 07A0  FF 0E 0000 U		                   DEC   R7 DEC        
					               ;0A1F   1F 
08AOYU~1.asm(1302): error A2009: Symbol not defined: R7
    1315 07A4  75 00			                   JNZ   Q0AJNZ        
					               ;0A20   70 E6 
08AOYU~1.asm(1303): error A2009: Symbol not defined: Q0AJNZ
    1316 07A6  FF 0E 0000 U		                   DEC   R6 DEC        
					               ;0A22   1E 
08AOYU~1.asm(1304): error A2009: Symbol not defined: R6
    1317				                   SJMP  Q0A08         
					               ;0A23   80 E3 
08AOYU~1.asm(1305): error A2105: Expected: instruction or directive
    1318 07AA  C3			Q0A25:             RET      RET        
					               ;0A25   22 
08AOYU~1.asm(1306): error A2062: Missing or unreachable CS
    1319				;======================================
					==================================== 
    1320 07AB  C7 06 0000 U 007B	Q0A26:             MOV   TMOMOV01H     
					               ;0A26   75 89 01 
08AOYU~1.asm(1308): error A2062: Missing or unreachable CS
    1321 07B1  C7 06 0000 U 00A0	                   MOV   TH0MOVCH      
					               ;0A29   75 8C 3C 
08AOYU~1.asm(1309): error A2009: Symbol not defined: TH0MOVCH
    1322				                   MOV   TL0MOVB0H     
					               ;0A2C   75 8A B0 
08AOYU~1.asm(1310): error A2009: Symbol not defined: TL0MOVB0H
    1323				                   SETB  EA            
					               ;0A2F   D2 AF 
08AOYU~1.asm(1311): error A2105: Expected: instruction or directive
    1324				                   SETB  ET0           
					               ;0A31   D2 A9 
08AOYU~1.asm(1312): error A2105: Expected: instruction or directive
    1325				                   SETB  TR0           
					               ;0A33   D2 8C 
08AOYU~1.asm(1313): error A2105: Expected: instruction or directive
    1326				Q0A35:             LCALL Q0989         
					               ;0A35   12 09 89 
08AOYU~1.asm(1314): error A2062: Missing or unreachable CS
    1327				                   LCALL Q01CE         
					               ;0A38   12 01 CE 
08AOYU~1.asm(1315): error A2105: Expected: instruction or directive
    1328				                   LCALL Q08E2         
Microsoft (R) Macro Assembler Version 5.00                                                                               Page     1-73


					               ;0A3B   12 08 E2 
08AOYU~1.asm(1316): error A2105: Expected: instruction or directive
    1329				                   LCALL Q0847         
					               ;0A3E   12 08 47 
08AOYU~1.asm(1317): error A2105: Expected: instruction or directive
    1330				                   LCALL Q072C         
					               ;0A41   12 07 2C 
08AOYU~1.asm(1318): error A2105: Expected: instruction or directive
    1331				                   LCALL Q0895         
					               ;0A44   12 08 95 
08AOYU~1.asm(1319): error A2105: Expected: instruction or directive
    1332				                   LCALL Q092C         
					               ;0A47   12 09 2C 
08AOYU~1.asm(1320): error A2105: Expected: instruction or directive
    1333				                   LCALL Q0501         
					               ;0A4A   12 05 01 
08AOYU~1.asm(1321): error A2105: Expected: instruction or directive
    1334				                   LCALL Q000E         
					               ;0A4D   12 00 0E 
08AOYU~1.asm(1322): error A2105: Expected: instruction or directive
    1335				                   SJMP  Q0A35         
					               ;0A50   80 E3 
08AOYU~1.asm(1323): error A2105: Expected: instruction or directive
    1336 07B7  FF 36 0000 U		                   PUSH  ACCPUSH       
					               ;0A52   C0 E0 
08AOYU~1.asm(1324): error A2009: Symbol not defined: ACCPUSH
    1337 07BB  FF 36 0000 U		                   PUSH  PSWPUSH  PSW  
					               ;0A54   C0 D0 
08AOYU~1.asm(1325): error A2009: Symbol not defined: PSWPUSH
    1338 07BF  C7 06 0000 U 00A3	                   MOV   TH0MOVCH      
					               ;0A56   75 8C 3C 
08AOYU~1.asm(1326): error A2009: Symbol not defined: TH0MOVCH
    1339				                   MOV   TL0MOVB0H     
					               ;0A59   75 8A B0 
08AOYU~1.asm(1327): error A2009: Symbol not defined: TL0MOVB0H
    1340 07C5  FF 06 0048 U		                   INC   48HINC        
					               ;0A5C   05 48 
08AOYU~1.asm(1328): error A2009: Symbol not defined: INC
    1341				                   MOV   A,4MOV        
					               ;0A5E   E5 48 
08AOYU~1.asm(1329): error A2009: Symbol not defined: A
    1342				                   CJNE  A,#14H,Q0A68  
					               ;0A60   B4 14 05 
08AOYU~1.asm(1330): error A2105: Expected: instruction or directive
    1343 07C9  C7 06 0048 U 0076	                   MOV   48HMOV0H      
					               ;0A63   75 48 00 
08AOYU~1.asm(1331): error A2009: Symbol not defined: MOV0H
    1344 07CF  FF 06 003D U		                   INC   3DHINC        
					               ;0A66   05 3D 
08AOYU~1.asm(1332): error A2009: Symbol not defined: INC
    1345 07D3  8F 06 0000 U		Q0A68:             POP   PSWPOP   PSW  
					               ;0A68   D0 D0 
08AOYU~1.asm(1333): error A2062: Missing or unreachable CS
    1346 07D7  8F 06 0000 U		                   POP   ACCPOP        
Microsoft (R) Macro Assembler Version 5.00                                                                               Page     1-74


					               ;0A6A   D0 E0 
08AOYU~1.asm(1334): error A2009: Symbol not defined: ACCPOP
    1347				                   RETI                
					               ;0A6C   32 
08AOYU~1.asm(1335): error A2105: Expected: instruction or directive
    1348				;======================================
					==================================== 
    1349 07DB  00 00 00 06 00 5B 00	Q0A6D:		 DB  00H, DBH, 00H, 06H
					, 00H, 5BH, 00H, 4FH	; 
08AOYU~1.asm(1337): error A2062: Missing or unreachable CS
    1350       4F			
08AOYU~1.asm(1337): error A2086: Data emitted with no segment
    1351 07E3  00 00 00 6D 00 7D 00	Q0A75:		 DB  00H, DBH, 00H, 6DH
					, 00H, 7DH, 00H, 07H	; 
08AOYU~1.asm(1338): error A2062: Missing or unreachable CS
    1352       07			
08AOYU~1.asm(1338): error A2086: Data emitted with no segment
    1353 07EB  00 00 00 6F 00 00	Q0A7D:		 DB  00H, DBH, 00H, 6FH
					, 00H, 00H	; 
08AOYU~1.asm(1339): error A2062: Missing or unreachable CS
    1354				 
08AOYU~1.asm(1340): warning A4085: End of file, no END directive
Microsoft (R) Macro Assembler Version 5.00                                                                               Symbols-1


Symbols:            

                N a m e         	Type	 Value	 Attr

Q0000  . . . . . . . . . . . . .  	L NEAR	0000	
Q0003  . . . . . . . . . . . . .  	L NEAR	0000	
Q000B  . . . . . . . . . . . . .  	L NEAR	0008	
Q000E  . . . . . . . . . . . . .  	L NEAR	000B	
Q0017  . . . . . . . . . . . . .  	L NEAR	0013	
Q0024  . . . . . . . . . . . . .  	L NEAR	0025	
Q0031  . . . . . . . . . . . . .  	L NEAR	0037	
Q003E  . . . . . . . . . . . . .  	L NEAR	0049	
Q0051  . . . . . . . . . . . . .  	L NEAR	0067	
Q0056  . . . . . . . . . . . . .  	L NEAR	0072	
Q005D  . . . . . . . . . . . . .  	L NEAR	007A	
Q006C  . . . . . . . . . . . . .  	L NEAR	009A	
Q006E  . . . . . . . . . . . . .  	L NEAR	00A0	
Q0076  . . . . . . . . . . . . .  	L NEAR	00AE	
Q0078  . . . . . . . . . . . . .  	L NEAR	00B4	
Q0083  . . . . . . . . . . . . .  	L NEAR	00CE	
Q0085  . . . . . . . . . . . . .  	L NEAR	00D4	
Q0090  . . . . . . . . . . . . .  	L NEAR	00EE	
Q0092  . . . . . . . . . . . . .  	L NEAR	00F4	
Q00BE  . . . . . . . . . . . . .  	L NEAR	013C	
Q00D7  . . . . . . . . . . . . .  	L NEAR	0162	
Q00D9  . . . . . . . . . . . . .  	L NEAR	0162	
Q00E0  . . . . . . . . . . . . .  	L NEAR	016A	
Q00F9  . . . . . . . . . . . . .  	L NEAR	0194	
Q00FC  . . . . . . . . . . . . .  	L NEAR	0194	
Q0103  . . . . . . . . . . . . .  	L NEAR	019C	
Q0116  . . . . . . . . . . . . .  	L NEAR	01BA	
Q0123  . . . . . . . . . . . . .  	L NEAR	01CC	
Q0130  . . . . . . . . . . . . .  	L NEAR	01DE	
Q013D  . . . . . . . . . . . . .  	L NEAR	01F0	
Q0140  . . . . . . . . . . . . .  	L NEAR	01F7	
Q0147  . . . . . . . . . . . . .  	L NEAR	01FF	
Q0155  . . . . . . . . . . . . .  	L NEAR	0217	
Q015A  . . . . . . . . . . . . .  	L NEAR	0222	
Q016D  . . . . . . . . . . . . .  	L NEAR	023C	
Q0177  . . . . . . . . . . . . .  	L NEAR	0248	
Q017A  . . . . . . . . . . . . .  	L NEAR	024E	
Q0180  . . . . . . . . . . . . .  	L NEAR	025A	
Q018E  . . . . . . . . . . . . .  	L NEAR	0272	
Q0193  . . . . . . . . . . . . .  	L NEAR	027D	
Q01C7  . . . . . . . . . . . . .  	L NEAR	02D7	
Q01C8  . . . . . . . . . . . . .  	L NEAR	02D8	
Q01CE  . . . . . . . . . . . . .  	L NEAR	02E4	
Q0367  . . . . . . . . . . . . .  	L NEAR	05CC	
Q037C  . . . . . . . . . . . . .  	L NEAR	05E6	
Q0389  . . . . . . . . . . . . .  	L NEAR	05F8	
Q0390  . . . . . . . . . . . . .  	L NEAR	0605	
Q0399  . . . . . . . . . . . . .  	L NEAR	060D	
Q03A3  . . . . . . . . . . . . .  	L NEAR	0620	
Q03B0  . . . . . . . . . . . . .  	L NEAR	062E	
Microsoft (R) Macro Assembler Version 5.00                                                                               Symbols-2


Q03BD  . . . . . . . . . . . . .  	L NEAR	0640	
Q03C1  . . . . . . . . . . . . .  	L NEAR	0647	
Q03CE  . . . . . . . . . . . . .  	L NEAR	0655	
Q03DB  . . . . . . . . . . . . .  	L NEAR	0667	
Q03E8  . . . . . . . . . . . . .  	L NEAR	0679	
Q03F5  . . . . . . . . . . . . .  	L NEAR	068B	
Q03F9  . . . . . . . . . . . . .  	L NEAR	0692	
Q040E  . . . . . . . . . . . . .  	L NEAR	06AC	
Q0414  . . . . . . . . . . . . .  	L NEAR	06B7	
Q041D  . . . . . . . . . . . . .  	L NEAR	06BF	
Q0427  . . . . . . . . . . . . .  	L NEAR	06D2	
Q042D  . . . . . . . . . . . . .  	L NEAR	06D4	
Q0447  . . . . . . . . . . . . .  	L NEAR	06FA	
Q0449  . . . . . . . . . . . . .  	L NEAR	06FA	
Q0452  . . . . . . . . . . . . .  	L NEAR	0702	
Q045C  . . . . . . . . . . . . .  	L NEAR	0715	
Q0463  . . . . . . . . . . . . .  	L NEAR	071D	
Q047B  . . . . . . . . . . . . .  	L NEAR	073D	
Q0481  . . . . . . . . . . . . .  	L NEAR	0748	
Q0494  . . . . . . . . . . . . .  	L NEAR	0762	
Q04A0  . . . . . . . . . . . . .  	L NEAR	0776	
Q04A4  . . . . . . . . . . . . .  	L NEAR	077D	
Q04C3  . . . . . . . . . . . . .  	L NEAR	07AD	
Q04D1  . . . . . . . . . . . . .  	L NEAR	07C7	
Q04D5  . . . . . . . . . . . . .  	L NEAR	07CE	
Q0500  . . . . . . . . . . . . .  	L NEAR	0810	
Q0501  . . . . . . . . . . . . .  	L NEAR	0811	
Q0507  . . . . . . . . . . . . .  	L NEAR	0813	
Q0513  . . . . . . . . . . . . .  	L NEAR	082B	
Q0519  . . . . . . . . . . . . .  	L NEAR	0833	
Q0537  . . . . . . . . . . . . .  	L NEAR	085F	
Q0546  . . . . . . . . . . . . .  	L NEAR	0873	
Q056B  . . . . . . . . . . . . .  	L NEAR	08A7	
Q056F  . . . . . . . . . . . . .  	L NEAR	08AB	
Q057F  . . . . . . . . . . . . .  	L NEAR	08C5	
Q05A6  . . . . . . . . . . . . .  	L NEAR	090D	
Q05A7  . . . . . . . . . . . . .  	L NEAR	090E	
Q05AA  . . . . . . . . . . . . .  	L NEAR	0914	
Q05B3  . . . . . . . . . . . . .  	L NEAR	091E	
Q05B6  . . . . . . . . . . . . .  	L NEAR	091E	
Q05BA  . . . . . . . . . . . . .  	L NEAR	0928	
Q05C2  . . . . . . . . . . . . .  	L NEAR	0934	
Q05C3  . . . . . . . . . . . . .  	L NEAR	0934	
Q05C8  . . . . . . . . . . . . .  	L NEAR	0938	
Q05E0  . . . . . . . . . . . . .  	L NEAR	0949	
Q05E1  . . . . . . . . . . . . .  	L NEAR	0949	
Q05EE  . . . . . . . . . . . . .  	L NEAR	0957	
Q05F1  . . . . . . . . . . . . .  	L NEAR	095D	
Q0607  . . . . . . . . . . . . .  	L NEAR	0981	
Q0618  . . . . . . . . . . . . .  	L NEAR	099F	
Q062D  . . . . . . . . . . . . .  	L NEAR	09A7	
Q0633  . . . . . . . . . . . . .  	L NEAR	09A7	
Q06B3  . . . . . . . . . . . . .  	L NEAR	0AB0	
Q06C0  . . . . . . . . . . . . .  	L NEAR	0ABA	
Microsoft (R) Macro Assembler Version 5.00                                                                               Symbols-3


Q06C9  . . . . . . . . . . . . .  	L NEAR	0AC0	
Q06CD  . . . . . . . . . . . . .  	L NEAR	0AC0	
Q06D8  . . . . . . . . . . . . .  	L NEAR	0AC6	
Q06DC  . . . . . . . . . . . . .  	L NEAR	0AC6	
Q06E9  . . . . . . . . . . . . .  	L NEAR	0ACC	
Q06ED  . . . . . . . . . . . . .  	L NEAR	0ACC	
Q06FC  . . . . . . . . . . . . .  	L NEAR	0AD2	
Q0701  . . . . . . . . . . . . .  	L NEAR	0AD3	
Q0715  . . . . . . . . . . . . .  	L NEAR	0ADA	
Q072B  . . . . . . . . . . . . .  	L NEAR	0AE6	
Q072C  . . . . . . . . . . . . .  	L NEAR	0AE7	
Q073B  . . . . . . . . . . . . .  	L NEAR	0B01	
Q0741  . . . . . . . . . . . . .  	L NEAR	0B09	
Q075F  . . . . . . . . . . . . .  	L NEAR	0B35	
Q076E  . . . . . . . . . . . . .  	L NEAR	0B49	
Q0793  . . . . . . . . . . . . .  	L NEAR	0B7D	
Q0797  . . . . . . . . . . . . .  	L NEAR	0B81	
Q0798  . . . . . . . . . . . . .  	L NEAR	0B82	
Q07A0  . . . . . . . . . . . . .  	L NEAR	0B8A	
Q07A8  . . . . . . . . . . . . .  	L NEAR	0B92	
Q07B0  . . . . . . . . . . . . .  	L NEAR	0B9A	
Q07B8  . . . . . . . . . . . . .  	L NEAR	0BA2	
Q07C0  . . . . . . . . . . . . .  	L NEAR	0BAA	
Q07C8  . . . . . . . . . . . . .  	L NEAR	0BB2	
Q07D0  . . . . . . . . . . . . .  	L NEAR	0BBA	
Q07D8  . . . . . . . . . . . . .  	L NEAR	0BC2	
Q07E0  . . . . . . . . . . . . .  	L NEAR	0BCA	
Q07E8  . . . . . . . . . . . . .  	L NEAR	0BD2	
Q07F0  . . . . . . . . . . . . .  	L NEAR	0BDA	
Q07F2  . . . . . . . . . . . . .  	L NEAR	0BDC	
Q0800  . . . . . . . . . . . . .  	L NEAR	0BF9	
Q0806  . . . . . . . . . . . . .  	L NEAR	0C05	
Q081A  . . . . . . . . . . . . .  	L NEAR	0C53	
Q0821  . . . . . . . . . . . . .  	L NEAR	0C5A	
Q0830  . . . . . . . . . . . . .  	L NEAR	0C8A	
Q083F  . . . . . . . . . . . . .  	L NEAR	0CAD	
Q0841  . . . . . . . . . . . . .  	L NEAR	0CAD	
Q0846  . . . . . . . . . . . . .  	L NEAR	0CB7	
Q0847  . . . . . . . . . . . . .  	L NEAR	0CB8	
Q0850  . . . . . . . . . . . . .  	L NEAR	0CC6	
Q0856  . . . . . . . . . . . . .  	L NEAR	0CCE	
Q0868  . . . . . . . . . . . . .  	L NEAR	0CE2	
Q0877  . . . . . . . . . . . . .  	L NEAR	0CF6	
Q0890  . . . . . . . . . . . . .  	L NEAR	0D12	
Q0894  . . . . . . . . . . . . .  	L NEAR	0D16	
Q0895  . . . . . . . . . . . . .  	L NEAR	0D17	
Q08A0  . . . . . . . . . . . . .  	L NEAR	0D25	
Q08A9  . . . . . . . . . . . . .  	L NEAR	0D33	
Q08AF  . . . . . . . . . . . . .  	L NEAR	0D3B	
Q08BE  . . . . . . . . . . . . .  	L NEAR	0D4F	
Q08CD  . . . . . . . . . . . . .  	L NEAR	0D63	
Q08DD  . . . . . . . . . . . . .  	L NEAR	0D73	
Q08E1  . . . . . . . . . . . . .  	L NEAR	0D77	
Q08E2  . . . . . . . . . . . . .  	L NEAR	0D78	
Microsoft (R) Macro Assembler Version 5.00                                                                               Symbols-4


Q08ED  . . . . . . . . . . . . .  	L NEAR	0D86	
Q08F3  . . . . . . . . . . . . .  	L NEAR	0D8E	
Q0905  . . . . . . . . . . . . .  	L NEAR	0DA2	
Q0914  . . . . . . . . . . . . .  	L NEAR	0DB6	
Q0927  . . . . . . . . . . . . .  	L NEAR	0DC6	
Q092B  . . . . . . . . . . . . .  	L NEAR	0DCA	
Q092C  . . . . . . . . . . . . .  	L NEAR	0DCB	
Q0935  . . . . . . . . . . . . .  	L NEAR	0DD9	
Q093B  . . . . . . . . . . . . .  	L NEAR	0DE1	
Q094A  . . . . . . . . . . . . .  	L NEAR	0DF5	
Q0959  . . . . . . . . . . . . .  	L NEAR	0E09	
Q096F  . . . . . . . . . . . . .  	L NEAR	0E25	
Q0973  . . . . . . . . . . . . .  	L NEAR	0E29	
Q0974  . . . . . . . . . . . . .  	L NEAR	0E2A	
Q097A  . . . . . . . . . . . . .  	L NEAR	0E36	
Q0989  . . . . . . . . . . . . .  	L NEAR	0E4E	
Q09B0  . . . . . . . . . . . . .  	L NEAR	0E84	
Q09B3  . . . . . . . . . . . . .  	L NEAR	0E84	
Q09B6  . . . . . . . . . . . . .  	L NEAR	0E84	
Q09B7  . . . . . . . . . . . . .  	L NEAR	0E85	
Q09CE  . . . . . . . . . . . . .  	L NEAR	0EAD	
Q09EC  . . . . . . . . . . . . .  	L NEAR	0EED	
Q09EF  . . . . . . . . . . . . .  	L NEAR	0EF4	
Q09F2  . . . . . . . . . . . . .  	L NEAR	0EFB	
Q0A00  . . . . . . . . . . . . .  	L NEAR	0F18	
Q0A03  . . . . . . . . . . . . .  	L NEAR	0F1E	
Q0A08  . . . . . . . . . . . . .  	L NEAR	0F2A	
Q0A15  . . . . . . . . . . . . .  	L NEAR	0F44	
Q0A1A  . . . . . . . . . . . . .  	L NEAR	0F54	
Q0A25  . . . . . . . . . . . . .  	L NEAR	0F6C	
Q0A26  . . . . . . . . . . . . .  	L NEAR	0F6D	
Q0A35  . . . . . . . . . . . . .  	L NEAR	0F7F	
Q0A68  . . . . . . . . . . . . .  	L NEAR	0FA7	
Q0A6D  . . . . . . . . . . . . .  	L NEAR	0FAF	
Q0A75  . . . . . . . . . . . . .  	L NEAR	0FB7	
Q0A7D  . . . . . . . . . . . . .  	L NEAR	0FBF	

@FILENAME  . . . . . . . . . . .  	TEXT  08AOYU~1		


   1339 Source  Lines
6881899 Total   Lines
     97 Symbols

  49778 + 378094 Bytes symbol space free

      1 Warning Errors
   1274 Severe  Errors
